ARM GAS  C:\Users\holge\AppData\Local\Temp\ccfhesHk.s 			page 1


   1              		.syntax unified
   2              		.cpu cortex-m3
   3              		.fpu softvfp
   4              		.eabi_attribute 20, 1
   5              		.eabi_attribute 21, 1
   6              		.eabi_attribute 23, 3
   7              		.eabi_attribute 24, 1
   8              		.eabi_attribute 25, 1
   9              		.eabi_attribute 26, 1
  10              		.eabi_attribute 30, 6
  11              		.eabi_attribute 34, 1
  12              		.eabi_attribute 18, 4
  13              		.thumb
  14              		.syntax unified
  15              		.file	"CapSense_CSD_CSHL.c"
  16              		.text
  17              	.Ltext0:
  18              		.cfi_sections	.debug_frame
  19              		.comm	CapSense_CSD_sensorBaseline,10,4
  20              		.comm	CapSense_CSD_sensorBaselineLow,5,4
  21              		.comm	CapSense_CSD_sensorSignal,10,4
  22              		.comm	CapSense_CSD_sensorOnMask,1,4
  23              		.comm	CapSense_CSD_lowBaselineResetCnt,5,4
  24              		.global	CapSense_CSD_fingerThreshold
  25              		.section	.rodata
  26              		.align	2
  27              		.type	CapSense_CSD_fingerThreshold, %object
  28              		.size	CapSense_CSD_fingerThreshold, 2
  29              	CapSense_CSD_fingerThreshold:
  30 0000 5400     		.short	84
  31              		.global	CapSense_CSD_noiseThreshold
  32 0002 0000     		.align	2
  33              		.type	CapSense_CSD_noiseThreshold, %object
  34              		.size	CapSense_CSD_noiseThreshold, 2
  35              	CapSense_CSD_noiseThreshold:
  36 0004 2A00     		.short	42
  37              		.global	CapSense_CSD_hysteresis
  38 0006 0000     		.align	2
  39              		.type	CapSense_CSD_hysteresis, %object
  40              		.size	CapSense_CSD_hysteresis, 2
  41              	CapSense_CSD_hysteresis:
  42 0008 0000     		.space	2
  43              		.global	CapSense_CSD_debounce
  44 000a 0000     		.align	2
  45              		.type	CapSense_CSD_debounce, %object
  46              		.size	CapSense_CSD_debounce, 1
  47              	CapSense_CSD_debounce:
  48 000c 01       		.byte	1
  49              		.global	CapSense_CSD_debounceCounter
  50              		.bss
  51              		.align	2
  52              		.type	CapSense_CSD_debounceCounter, %object
  53              		.size	CapSense_CSD_debounceCounter, 1
  54              	CapSense_CSD_debounceCounter:
  55 0000 00       		.space	1
  56              		.global	CapSense_CSD_rawDataIndex
  57              		.section	.rodata
ARM GAS  C:\Users\holge\AppData\Local\Temp\ccfhesHk.s 			page 2


  58 000d 000000   		.align	2
  59              		.type	CapSense_CSD_rawDataIndex, %object
  60              		.size	CapSense_CSD_rawDataIndex, 1
  61              	CapSense_CSD_rawDataIndex:
  62 0010 00       		.space	1
  63              		.global	CapSense_CSD_numberOfSensors
  64 0011 000000   		.align	2
  65              		.type	CapSense_CSD_numberOfSensors, %object
  66              		.size	CapSense_CSD_numberOfSensors, 1
  67              	CapSense_CSD_numberOfSensors:
  68 0014 05       		.byte	5
  69              		.global	CapSense_CSD_centroidMult
  70 0015 000000   		.align	2
  71              		.type	CapSense_CSD_centroidMult, %object
  72              		.size	CapSense_CSD_centroidMult, 2
  73              	CapSense_CSD_centroidMult:
  74 0018 0019     		.short	6400
  75              		.section	.text.CapSense_CSD_BaseInit,"ax",%progbits
  76              		.align	2
  77              		.global	CapSense_CSD_BaseInit
  78              		.thumb
  79              		.thumb_func
  80              		.type	CapSense_CSD_BaseInit, %function
  81              	CapSense_CSD_BaseInit:
  82              	.LFB0:
  83              		.file 1 "Generated_Source\\PSoC5\\CapSense_CSD_CSHL.c"
   1:Generated_Source\PSoC5/CapSense_CSD_CSHL.c **** /*******************************************************************************
   2:Generated_Source\PSoC5/CapSense_CSD_CSHL.c **** * File Name: CapSense_CSD_CSHL.c
   3:Generated_Source\PSoC5/CapSense_CSD_CSHL.c **** * Version 3.50
   4:Generated_Source\PSoC5/CapSense_CSD_CSHL.c **** *
   5:Generated_Source\PSoC5/CapSense_CSD_CSHL.c **** * Description:
   6:Generated_Source\PSoC5/CapSense_CSD_CSHL.c **** *  This file provides the source code to the High Level APIs for the CapSesne
   7:Generated_Source\PSoC5/CapSense_CSD_CSHL.c **** *  CSD component.
   8:Generated_Source\PSoC5/CapSense_CSD_CSHL.c **** *
   9:Generated_Source\PSoC5/CapSense_CSD_CSHL.c **** * Note:
  10:Generated_Source\PSoC5/CapSense_CSD_CSHL.c **** *
  11:Generated_Source\PSoC5/CapSense_CSD_CSHL.c **** ********************************************************************************
  12:Generated_Source\PSoC5/CapSense_CSD_CSHL.c **** * Copyright 2008-2013, Cypress Semiconductor Corporation.  All rights reserved.
  13:Generated_Source\PSoC5/CapSense_CSD_CSHL.c **** * You may use this file only in accordance with the license, terms, conditions,
  14:Generated_Source\PSoC5/CapSense_CSD_CSHL.c **** * disclaimers, and limitations in the end user license agreement accompanying
  15:Generated_Source\PSoC5/CapSense_CSD_CSHL.c **** * the software package with which this file was provided.
  16:Generated_Source\PSoC5/CapSense_CSD_CSHL.c **** *******************************************************************************/
  17:Generated_Source\PSoC5/CapSense_CSD_CSHL.c **** 
  18:Generated_Source\PSoC5/CapSense_CSD_CSHL.c **** #include "CapSense_CSD_CSHL.h"
  19:Generated_Source\PSoC5/CapSense_CSD_CSHL.c **** 
  20:Generated_Source\PSoC5/CapSense_CSD_CSHL.c **** /* Storage of filters data */
  21:Generated_Source\PSoC5/CapSense_CSD_CSHL.c **** #if ( (CapSense_CSD_RAW_FILTER_MASK & CapSense_CSD_MEDIAN_FILTER) | \
  22:Generated_Source\PSoC5/CapSense_CSD_CSHL.c ****       (CapSense_CSD_RAW_FILTER_MASK & CapSense_CSD_AVERAGING_FILTER) )
  23:Generated_Source\PSoC5/CapSense_CSD_CSHL.c **** 
  24:Generated_Source\PSoC5/CapSense_CSD_CSHL.c ****     uint16 CapSense_CSD_rawFilterData1[CapSense_CSD_TOTAL_SENSOR_COUNT];
  25:Generated_Source\PSoC5/CapSense_CSD_CSHL.c ****     uint16 CapSense_CSD_rawFilterData2[CapSense_CSD_TOTAL_SENSOR_COUNT];
  26:Generated_Source\PSoC5/CapSense_CSD_CSHL.c **** 
  27:Generated_Source\PSoC5/CapSense_CSD_CSHL.c **** #elif ( (CapSense_CSD_RAW_FILTER_MASK & CapSense_CSD_IIR2_FILTER)   | \
  28:Generated_Source\PSoC5/CapSense_CSD_CSHL.c ****         (CapSense_CSD_RAW_FILTER_MASK & CapSense_CSD_IIR4_FILTER)   | \
  29:Generated_Source\PSoC5/CapSense_CSD_CSHL.c ****         (CapSense_CSD_RAW_FILTER_MASK & CapSense_CSD_JITTER_FILTER) | \
  30:Generated_Source\PSoC5/CapSense_CSD_CSHL.c ****         (CapSense_CSD_RAW_FILTER_MASK & CapSense_CSD_IIR8_FILTER)   | \
  31:Generated_Source\PSoC5/CapSense_CSD_CSHL.c ****         (CapSense_CSD_RAW_FILTER_MASK & CapSense_CSD_IIR16_FILTER) )
ARM GAS  C:\Users\holge\AppData\Local\Temp\ccfhesHk.s 			page 3


  32:Generated_Source\PSoC5/CapSense_CSD_CSHL.c ****         
  33:Generated_Source\PSoC5/CapSense_CSD_CSHL.c ****     uint16 CapSense_CSD_rawFilterData1[CapSense_CSD_TOTAL_SENSOR_COUNT];
  34:Generated_Source\PSoC5/CapSense_CSD_CSHL.c **** 
  35:Generated_Source\PSoC5/CapSense_CSD_CSHL.c **** #else
  36:Generated_Source\PSoC5/CapSense_CSD_CSHL.c ****     /* No Raw filters */
  37:Generated_Source\PSoC5/CapSense_CSD_CSHL.c **** #endif  /* ( (CapSense_CSD_RAW_FILTER_MASK & CapSense_CSD_MEDIAN_FILTER) || \
  38:Generated_Source\PSoC5/CapSense_CSD_CSHL.c ****         *    (CapSense_CSD_RAW_FILTER_MASK & CapSense_CSD_AVERAGING_FILTER) )
  39:Generated_Source\PSoC5/CapSense_CSD_CSHL.c ****         */
  40:Generated_Source\PSoC5/CapSense_CSD_CSHL.c **** 
  41:Generated_Source\PSoC5/CapSense_CSD_CSHL.c **** uint16 CapSense_CSD_sensorBaseline[CapSense_CSD_TOTAL_SENSOR_COUNT];
  42:Generated_Source\PSoC5/CapSense_CSD_CSHL.c **** uint8 CapSense_CSD_sensorBaselineLow[CapSense_CSD_TOTAL_SENSOR_COUNT];
  43:Generated_Source\PSoC5/CapSense_CSD_CSHL.c **** uint16 CapSense_CSD_sensorSignal[CapSense_CSD_TOTAL_SENSOR_COUNT];
  44:Generated_Source\PSoC5/CapSense_CSD_CSHL.c **** uint8 CapSense_CSD_sensorOnMask[(((CapSense_CSD_TOTAL_SENSOR_COUNT - 1u) / 8u) + 1u)];
  45:Generated_Source\PSoC5/CapSense_CSD_CSHL.c **** 
  46:Generated_Source\PSoC5/CapSense_CSD_CSHL.c **** uint8 CapSense_CSD_lowBaselineResetCnt[CapSense_CSD_TOTAL_SENSOR_COUNT];
  47:Generated_Source\PSoC5/CapSense_CSD_CSHL.c **** 
  48:Generated_Source\PSoC5/CapSense_CSD_CSHL.c **** const uint16 CYCODE CapSense_CSD_fingerThreshold[] = {
  49:Generated_Source\PSoC5/CapSense_CSD_CSHL.c ****     84u, 
  50:Generated_Source\PSoC5/CapSense_CSD_CSHL.c **** };
  51:Generated_Source\PSoC5/CapSense_CSD_CSHL.c **** 
  52:Generated_Source\PSoC5/CapSense_CSD_CSHL.c **** const uint16 CYCODE CapSense_CSD_noiseThreshold[] = {
  53:Generated_Source\PSoC5/CapSense_CSD_CSHL.c ****     42u, 
  54:Generated_Source\PSoC5/CapSense_CSD_CSHL.c **** };
  55:Generated_Source\PSoC5/CapSense_CSD_CSHL.c **** 
  56:Generated_Source\PSoC5/CapSense_CSD_CSHL.c **** const uint16 CYCODE CapSense_CSD_hysteresis[] = {
  57:Generated_Source\PSoC5/CapSense_CSD_CSHL.c ****     0u, 
  58:Generated_Source\PSoC5/CapSense_CSD_CSHL.c **** };
  59:Generated_Source\PSoC5/CapSense_CSD_CSHL.c **** 
  60:Generated_Source\PSoC5/CapSense_CSD_CSHL.c **** const uint8 CYCODE CapSense_CSD_debounce[] = {
  61:Generated_Source\PSoC5/CapSense_CSD_CSHL.c ****     1u, 
  62:Generated_Source\PSoC5/CapSense_CSD_CSHL.c **** };
  63:Generated_Source\PSoC5/CapSense_CSD_CSHL.c **** 
  64:Generated_Source\PSoC5/CapSense_CSD_CSHL.c **** uint8 CapSense_CSD_debounceCounter[] = {
  65:Generated_Source\PSoC5/CapSense_CSD_CSHL.c ****     0u, 
  66:Generated_Source\PSoC5/CapSense_CSD_CSHL.c **** };
  67:Generated_Source\PSoC5/CapSense_CSD_CSHL.c **** 
  68:Generated_Source\PSoC5/CapSense_CSD_CSHL.c **** const uint8 CYCODE CapSense_CSD_rawDataIndex[] = {
  69:Generated_Source\PSoC5/CapSense_CSD_CSHL.c ****     0u, /* LinearSlider0__LS */
  70:Generated_Source\PSoC5/CapSense_CSD_CSHL.c **** 
  71:Generated_Source\PSoC5/CapSense_CSD_CSHL.c **** };
  72:Generated_Source\PSoC5/CapSense_CSD_CSHL.c **** 
  73:Generated_Source\PSoC5/CapSense_CSD_CSHL.c **** const uint8 CYCODE CapSense_CSD_numberOfSensors[] = {
  74:Generated_Source\PSoC5/CapSense_CSD_CSHL.c ****     5u, /* LinearSlider0__LS */
  75:Generated_Source\PSoC5/CapSense_CSD_CSHL.c **** 
  76:Generated_Source\PSoC5/CapSense_CSD_CSHL.c **** };
  77:Generated_Source\PSoC5/CapSense_CSD_CSHL.c **** 
  78:Generated_Source\PSoC5/CapSense_CSD_CSHL.c **** const uint16 CYCODE CapSense_CSD_centroidMult[] = {
  79:Generated_Source\PSoC5/CapSense_CSD_CSHL.c ****     6400u, 
  80:Generated_Source\PSoC5/CapSense_CSD_CSHL.c **** };
  81:Generated_Source\PSoC5/CapSense_CSD_CSHL.c **** 
  82:Generated_Source\PSoC5/CapSense_CSD_CSHL.c **** 
  83:Generated_Source\PSoC5/CapSense_CSD_CSHL.c **** 
  84:Generated_Source\PSoC5/CapSense_CSD_CSHL.c **** 
  85:Generated_Source\PSoC5/CapSense_CSD_CSHL.c **** /*******************************************************************************
  86:Generated_Source\PSoC5/CapSense_CSD_CSHL.c **** * Function Name: CapSense_CSD_BaseInit
  87:Generated_Source\PSoC5/CapSense_CSD_CSHL.c **** ********************************************************************************
  88:Generated_Source\PSoC5/CapSense_CSD_CSHL.c **** *
ARM GAS  C:\Users\holge\AppData\Local\Temp\ccfhesHk.s 			page 4


  89:Generated_Source\PSoC5/CapSense_CSD_CSHL.c **** * Summary:
  90:Generated_Source\PSoC5/CapSense_CSD_CSHL.c **** *  Loads the CapSense_CSD_sensorBaseline[sensor] array element with an 
  91:Generated_Source\PSoC5/CapSense_CSD_CSHL.c **** *  initial value which is equal to raw count value. 
  92:Generated_Source\PSoC5/CapSense_CSD_CSHL.c **** *  Resets to zero CapSense_CSD_sensorBaselineLow[sensor] and 
  93:Generated_Source\PSoC5/CapSense_CSD_CSHL.c **** *  CapSense_CSD_sensorSignal[sensor] array element.
  94:Generated_Source\PSoC5/CapSense_CSD_CSHL.c **** *  Loads CapSense_CSD_debounceCounter[sensor] array element with initial 
  95:Generated_Source\PSoC5/CapSense_CSD_CSHL.c **** *  value equal CapSense_CSD_debounce[].
  96:Generated_Source\PSoC5/CapSense_CSD_CSHL.c **** *  Loads the CapSense_CSD_rawFilterData2[sensor] and 
  97:Generated_Source\PSoC5/CapSense_CSD_CSHL.c **** *  CapSense_CSD_rawFilterData2[sensor] array element with an 
  98:Generated_Source\PSoC5/CapSense_CSD_CSHL.c **** *  initial value which is equal raw count value if raw data filter is enabled.
  99:Generated_Source\PSoC5/CapSense_CSD_CSHL.c **** *
 100:Generated_Source\PSoC5/CapSense_CSD_CSHL.c **** * Parameters:
 101:Generated_Source\PSoC5/CapSense_CSD_CSHL.c **** *  sensor:  Sensor number.
 102:Generated_Source\PSoC5/CapSense_CSD_CSHL.c **** *
 103:Generated_Source\PSoC5/CapSense_CSD_CSHL.c **** * Return:
 104:Generated_Source\PSoC5/CapSense_CSD_CSHL.c **** *  None
 105:Generated_Source\PSoC5/CapSense_CSD_CSHL.c **** *
 106:Generated_Source\PSoC5/CapSense_CSD_CSHL.c **** * Global Variables:
 107:Generated_Source\PSoC5/CapSense_CSD_CSHL.c **** *  CapSense_CSD_sensorBaseline[]    - used to store baseline value.
 108:Generated_Source\PSoC5/CapSense_CSD_CSHL.c **** *  CapSense_CSD_sensorBaselineLow[] - used to store fraction byte of 
 109:Generated_Source\PSoC5/CapSense_CSD_CSHL.c **** *  baseline value.
 110:Generated_Source\PSoC5/CapSense_CSD_CSHL.c **** *  CapSense_CSD_sensorSignal[]      - used to store diffence between 
 111:Generated_Source\PSoC5/CapSense_CSD_CSHL.c **** *  current value of raw data and previous value of baseline.
 112:Generated_Source\PSoC5/CapSense_CSD_CSHL.c **** *  CapSense_CSD_debounceCounter[]   - used to store current debounce 
 113:Generated_Source\PSoC5/CapSense_CSD_CSHL.c **** *  counter of sensor. Widget which has this parameter are buttons, matrix 
 114:Generated_Source\PSoC5/CapSense_CSD_CSHL.c **** *  buttons, proximity, guard. All other widgets haven't debounce parameter
 115:Generated_Source\PSoC5/CapSense_CSD_CSHL.c **** *  and use the last element of this array with value 0 (it means no debounce).
 116:Generated_Source\PSoC5/CapSense_CSD_CSHL.c **** *  CapSense_CSD_rawFilterData1[]    - used to store previous sample of 
 117:Generated_Source\PSoC5/CapSense_CSD_CSHL.c **** *  any enabled raw data filter.
 118:Generated_Source\PSoC5/CapSense_CSD_CSHL.c **** *  CapSense_CSD_rawFilterData2[]    - used to store before previous sample
 119:Generated_Source\PSoC5/CapSense_CSD_CSHL.c **** *  of enabled raw data filter. Only required for median or average filters.
 120:Generated_Source\PSoC5/CapSense_CSD_CSHL.c **** *
 121:Generated_Source\PSoC5/CapSense_CSD_CSHL.c **** * Reentrant:
 122:Generated_Source\PSoC5/CapSense_CSD_CSHL.c **** *  No
 123:Generated_Source\PSoC5/CapSense_CSD_CSHL.c **** *
 124:Generated_Source\PSoC5/CapSense_CSD_CSHL.c **** *******************************************************************************/
 125:Generated_Source\PSoC5/CapSense_CSD_CSHL.c **** void CapSense_CSD_BaseInit(uint8 sensor) 
 126:Generated_Source\PSoC5/CapSense_CSD_CSHL.c **** {
  84              		.loc 1 126 0
  85              		.cfi_startproc
  86              		@ args = 0, pretend = 0, frame = 8
  87              		@ frame_needed = 1, uses_anonymous_args = 0
  88              		@ link register save eliminated.
  89 0000 80B4     		push	{r7}
  90              		.cfi_def_cfa_offset 4
  91              		.cfi_offset 7, -4
  92 0002 83B0     		sub	sp, sp, #12
  93              		.cfi_def_cfa_offset 16
  94 0004 00AF     		add	r7, sp, #0
  95              		.cfi_def_cfa_register 7
  96 0006 0346     		mov	r3, r0
  97 0008 FB71     		strb	r3, [r7, #7]
 127:Generated_Source\PSoC5/CapSense_CSD_CSHL.c ****     #if ((CapSense_CSD_TOTAL_BUTTONS_COUNT) || (CapSense_CSD_TOTAL_MATRIX_BUTTONS_COUNT) || \
 128:Generated_Source\PSoC5/CapSense_CSD_CSHL.c ****          (CapSense_CSD_TOTAL_GENERICS_COUNT))
 129:Generated_Source\PSoC5/CapSense_CSD_CSHL.c ****         uint8 widget = CapSense_CSD_widgetNumber[sensor];
 130:Generated_Source\PSoC5/CapSense_CSD_CSHL.c ****     #endif /* ((CapSense_CSD_TOTAL_MATRIX_BUTTONS_COUNT) || (CapSense_CSD_TOTAL_MATRIX_BUTTONS_COUN
 131:Generated_Source\PSoC5/CapSense_CSD_CSHL.c ****     
ARM GAS  C:\Users\holge\AppData\Local\Temp\ccfhesHk.s 			page 5


 132:Generated_Source\PSoC5/CapSense_CSD_CSHL.c ****     #if (CapSense_CSD_TOTAL_MATRIX_BUTTONS_COUNT)
 133:Generated_Source\PSoC5/CapSense_CSD_CSHL.c ****         uint8 debounceIndex;
 134:Generated_Source\PSoC5/CapSense_CSD_CSHL.c ****     #endif  /* (CapSense_CSD_TOTAL_MATRIX_BUTTONS_COUNT) */
 135:Generated_Source\PSoC5/CapSense_CSD_CSHL.c ****     
 136:Generated_Source\PSoC5/CapSense_CSD_CSHL.c ****     #if (CapSense_CSD_TOTAL_GENERICS_COUNT)
 137:Generated_Source\PSoC5/CapSense_CSD_CSHL.c ****         /* Exclude generic widget */
 138:Generated_Source\PSoC5/CapSense_CSD_CSHL.c ****         if(widget < CapSense_CSD_END_OF_WIDGETS_INDEX)
 139:Generated_Source\PSoC5/CapSense_CSD_CSHL.c ****         {
 140:Generated_Source\PSoC5/CapSense_CSD_CSHL.c ****     #endif  /* CapSense_CSD_TOTAL_GENERICS_COUNT */
 141:Generated_Source\PSoC5/CapSense_CSD_CSHL.c ****     
 142:Generated_Source\PSoC5/CapSense_CSD_CSHL.c ****     /* Initialize Baseline */
 143:Generated_Source\PSoC5/CapSense_CSD_CSHL.c ****     CapSense_CSD_sensorBaseline[sensor] = CapSense_CSD_sensorRaw[sensor];
  98              		.loc 1 143 0
  99 000a FB79     		ldrb	r3, [r7, #7]	@ zero_extendqisi2
 100 000c FA79     		ldrb	r2, [r7, #7]	@ zero_extendqisi2
 101 000e 0A49     		ldr	r1, .L2
 102 0010 31F81210 		ldrh	r1, [r1, r2, lsl #1]
 103 0014 094A     		ldr	r2, .L2+4
 104 0016 22F81310 		strh	r1, [r2, r3, lsl #1]	@ movhi
 144:Generated_Source\PSoC5/CapSense_CSD_CSHL.c ****     CapSense_CSD_sensorBaselineLow[sensor] = 0u;
 105              		.loc 1 144 0
 106 001a FB79     		ldrb	r3, [r7, #7]	@ zero_extendqisi2
 107 001c 084A     		ldr	r2, .L2+8
 108 001e 0021     		movs	r1, #0
 109 0020 D154     		strb	r1, [r2, r3]
 145:Generated_Source\PSoC5/CapSense_CSD_CSHL.c ****     CapSense_CSD_sensorSignal[sensor] = 0u;
 110              		.loc 1 145 0
 111 0022 FB79     		ldrb	r3, [r7, #7]	@ zero_extendqisi2
 112 0024 074A     		ldr	r2, .L2+12
 113 0026 0021     		movs	r1, #0
 114 0028 22F81310 		strh	r1, [r2, r3, lsl #1]	@ movhi
 146:Generated_Source\PSoC5/CapSense_CSD_CSHL.c ****         
 147:Generated_Source\PSoC5/CapSense_CSD_CSHL.c **** 
 148:Generated_Source\PSoC5/CapSense_CSD_CSHL.c ****     
 149:Generated_Source\PSoC5/CapSense_CSD_CSHL.c ****     #if ((CapSense_CSD_RAW_FILTER_MASK & CapSense_CSD_MEDIAN_FILTER) |\
 150:Generated_Source\PSoC5/CapSense_CSD_CSHL.c ****          (CapSense_CSD_RAW_FILTER_MASK & CapSense_CSD_AVERAGING_FILTER))
 151:Generated_Source\PSoC5/CapSense_CSD_CSHL.c **** 
 152:Generated_Source\PSoC5/CapSense_CSD_CSHL.c ****         CapSense_CSD_rawFilterData1[sensor] = CapSense_CSD_sensorRaw[sensor];
 153:Generated_Source\PSoC5/CapSense_CSD_CSHL.c ****         CapSense_CSD_rawFilterData2[sensor] = CapSense_CSD_sensorRaw[sensor];
 154:Generated_Source\PSoC5/CapSense_CSD_CSHL.c ****     
 155:Generated_Source\PSoC5/CapSense_CSD_CSHL.c ****     #elif ((CapSense_CSD_RAW_FILTER_MASK & CapSense_CSD_IIR2_FILTER) |\
 156:Generated_Source\PSoC5/CapSense_CSD_CSHL.c ****            (CapSense_CSD_RAW_FILTER_MASK & CapSense_CSD_IIR4_FILTER) |\
 157:Generated_Source\PSoC5/CapSense_CSD_CSHL.c ****            (CapSense_CSD_RAW_FILTER_MASK & CapSense_CSD_JITTER_FILTER) |\
 158:Generated_Source\PSoC5/CapSense_CSD_CSHL.c ****            (CapSense_CSD_RAW_FILTER_MASK & CapSense_CSD_IIR8_FILTER) |\
 159:Generated_Source\PSoC5/CapSense_CSD_CSHL.c ****            (CapSense_CSD_RAW_FILTER_MASK & CapSense_CSD_IIR16_FILTER))
 160:Generated_Source\PSoC5/CapSense_CSD_CSHL.c ****             
 161:Generated_Source\PSoC5/CapSense_CSD_CSHL.c ****         CapSense_CSD_rawFilterData1[sensor] = CapSense_CSD_sensorRaw[sensor];
 162:Generated_Source\PSoC5/CapSense_CSD_CSHL.c ****     
 163:Generated_Source\PSoC5/CapSense_CSD_CSHL.c ****     #else
 164:Generated_Source\PSoC5/CapSense_CSD_CSHL.c ****         /* No Raw filters */
 165:Generated_Source\PSoC5/CapSense_CSD_CSHL.c ****     #endif  /* ((CapSense_CSD_RAW_FILTER_MASK & CapSense_CSD_MEDIAN_FILTER) | \
 166:Generated_Source\PSoC5/CapSense_CSD_CSHL.c ****             *   (CapSense_CSD_RAW_FILTER_MASK & CapSense_CSD_AVERAGING_FILTER))
 167:Generated_Source\PSoC5/CapSense_CSD_CSHL.c ****             */
 168:Generated_Source\PSoC5/CapSense_CSD_CSHL.c ****     
 169:Generated_Source\PSoC5/CapSense_CSD_CSHL.c ****     #if (CapSense_CSD_TOTAL_GENERICS_COUNT)
 170:Generated_Source\PSoC5/CapSense_CSD_CSHL.c ****         /* Exclude generic widget */
 171:Generated_Source\PSoC5/CapSense_CSD_CSHL.c ****         }
ARM GAS  C:\Users\holge\AppData\Local\Temp\ccfhesHk.s 			page 6


 172:Generated_Source\PSoC5/CapSense_CSD_CSHL.c ****     #endif  /* CapSense_CSD_TOTAL_GENERICS_COUNT */
 173:Generated_Source\PSoC5/CapSense_CSD_CSHL.c **** }
 115              		.loc 1 173 0
 116 002c 00BF     		nop
 117 002e 0C37     		adds	r7, r7, #12
 118              		.cfi_def_cfa_offset 4
 119 0030 BD46     		mov	sp, r7
 120              		.cfi_def_cfa_register 13
 121              		@ sp needed
 122 0032 80BC     		pop	{r7}
 123              		.cfi_restore 7
 124              		.cfi_def_cfa_offset 0
 125 0034 7047     		bx	lr
 126              	.L3:
 127 0036 00BF     		.align	2
 128              	.L2:
 129 0038 00000000 		.word	CapSense_CSD_sensorRaw
 130 003c 00000000 		.word	CapSense_CSD_sensorBaseline
 131 0040 00000000 		.word	CapSense_CSD_sensorBaselineLow
 132 0044 00000000 		.word	CapSense_CSD_sensorSignal
 133              		.cfi_endproc
 134              	.LFE0:
 135              		.size	CapSense_CSD_BaseInit, .-CapSense_CSD_BaseInit
 136              		.section	.text.CapSense_CSD_InitializeSensorBaseline,"ax",%progbits
 137              		.align	2
 138              		.global	CapSense_CSD_InitializeSensorBaseline
 139              		.thumb
 140              		.thumb_func
 141              		.type	CapSense_CSD_InitializeSensorBaseline, %function
 142              	CapSense_CSD_InitializeSensorBaseline:
 143              	.LFB1:
 174:Generated_Source\PSoC5/CapSense_CSD_CSHL.c **** 
 175:Generated_Source\PSoC5/CapSense_CSD_CSHL.c **** 
 176:Generated_Source\PSoC5/CapSense_CSD_CSHL.c **** /*******************************************************************************
 177:Generated_Source\PSoC5/CapSense_CSD_CSHL.c **** * Function Name: CapSense_CSD_InitializeSensorBaseline
 178:Generated_Source\PSoC5/CapSense_CSD_CSHL.c **** ********************************************************************************
 179:Generated_Source\PSoC5/CapSense_CSD_CSHL.c **** *
 180:Generated_Source\PSoC5/CapSense_CSD_CSHL.c **** * Summary:
 181:Generated_Source\PSoC5/CapSense_CSD_CSHL.c **** *  Loads the CapSense_CSD_sensorBaseline[sensor] array element with an 
 182:Generated_Source\PSoC5/CapSense_CSD_CSHL.c **** *  initial value by scanning the selected sensor (one channel design) or pair 
 183:Generated_Source\PSoC5/CapSense_CSD_CSHL.c **** *  of sensors (two channels designs). The raw count value is copied into the 
 184:Generated_Source\PSoC5/CapSense_CSD_CSHL.c **** *  baseline array for each sensor. The raw data filters are initialized if 
 185:Generated_Source\PSoC5/CapSense_CSD_CSHL.c **** *  enabled.
 186:Generated_Source\PSoC5/CapSense_CSD_CSHL.c **** *
 187:Generated_Source\PSoC5/CapSense_CSD_CSHL.c **** * Parameters:
 188:Generated_Source\PSoC5/CapSense_CSD_CSHL.c **** *  sensor:  Sensor number.
 189:Generated_Source\PSoC5/CapSense_CSD_CSHL.c **** *
 190:Generated_Source\PSoC5/CapSense_CSD_CSHL.c **** * Return:
 191:Generated_Source\PSoC5/CapSense_CSD_CSHL.c **** *  None
 192:Generated_Source\PSoC5/CapSense_CSD_CSHL.c **** *
 193:Generated_Source\PSoC5/CapSense_CSD_CSHL.c **** * Reentrant:
 194:Generated_Source\PSoC5/CapSense_CSD_CSHL.c **** *  No
 195:Generated_Source\PSoC5/CapSense_CSD_CSHL.c **** *
 196:Generated_Source\PSoC5/CapSense_CSD_CSHL.c **** *******************************************************************************/
 197:Generated_Source\PSoC5/CapSense_CSD_CSHL.c **** void CapSense_CSD_InitializeSensorBaseline(uint8 sensor)
 198:Generated_Source\PSoC5/CapSense_CSD_CSHL.c ****                           
 199:Generated_Source\PSoC5/CapSense_CSD_CSHL.c **** {
ARM GAS  C:\Users\holge\AppData\Local\Temp\ccfhesHk.s 			page 7


 144              		.loc 1 199 0
 145              		.cfi_startproc
 146              		@ args = 0, pretend = 0, frame = 8
 147              		@ frame_needed = 1, uses_anonymous_args = 0
 148 0000 80B5     		push	{r7, lr}
 149              		.cfi_def_cfa_offset 8
 150              		.cfi_offset 7, -8
 151              		.cfi_offset 14, -4
 152 0002 82B0     		sub	sp, sp, #8
 153              		.cfi_def_cfa_offset 16
 154 0004 00AF     		add	r7, sp, #0
 155              		.cfi_def_cfa_register 7
 156 0006 0346     		mov	r3, r0
 157 0008 FB71     		strb	r3, [r7, #7]
 200:Generated_Source\PSoC5/CapSense_CSD_CSHL.c ****     /* Scan sensor */
 201:Generated_Source\PSoC5/CapSense_CSD_CSHL.c ****     CapSense_CSD_ScanSensor(sensor);
 158              		.loc 1 201 0
 159 000a FB79     		ldrb	r3, [r7, #7]	@ zero_extendqisi2
 160 000c 1846     		mov	r0, r3
 161 000e FFF7FEFF 		bl	CapSense_CSD_ScanSensor
 202:Generated_Source\PSoC5/CapSense_CSD_CSHL.c ****     while(CapSense_CSD_IsBusy() != 0u)
 162              		.loc 1 202 0
 163 0012 00BF     		nop
 164              	.L5:
 165              		.loc 1 202 0 is_stmt 0 discriminator 1
 166 0014 FFF7FEFF 		bl	CapSense_CSD_IsBusy
 167 0018 0346     		mov	r3, r0
 168 001a 002B     		cmp	r3, #0
 169 001c FAD1     		bne	.L5
 203:Generated_Source\PSoC5/CapSense_CSD_CSHL.c ****     {
 204:Generated_Source\PSoC5/CapSense_CSD_CSHL.c ****         /* Wait while busy */
 205:Generated_Source\PSoC5/CapSense_CSD_CSHL.c ****     }
 206:Generated_Source\PSoC5/CapSense_CSD_CSHL.c ****     
 207:Generated_Source\PSoC5/CapSense_CSD_CSHL.c ****     #if (CapSense_CSD_DESIGN_TYPE == CapSense_CSD_ONE_CHANNEL_DESIGN)
 208:Generated_Source\PSoC5/CapSense_CSD_CSHL.c ****         /* Initialize Baseline, Signal and debounce counters */       
 209:Generated_Source\PSoC5/CapSense_CSD_CSHL.c ****         CapSense_CSD_BaseInit(sensor);
 170              		.loc 1 209 0 is_stmt 1
 171 001e FB79     		ldrb	r3, [r7, #7]	@ zero_extendqisi2
 172 0020 1846     		mov	r0, r3
 173 0022 FFF7FEFF 		bl	CapSense_CSD_BaseInit
 210:Generated_Source\PSoC5/CapSense_CSD_CSHL.c ****         
 211:Generated_Source\PSoC5/CapSense_CSD_CSHL.c ****     #else
 212:Generated_Source\PSoC5/CapSense_CSD_CSHL.c ****     
 213:Generated_Source\PSoC5/CapSense_CSD_CSHL.c ****         if(sensor < CapSense_CSD_TOTAL_SENSOR_COUNT__CH0)
 214:Generated_Source\PSoC5/CapSense_CSD_CSHL.c ****         {
 215:Generated_Source\PSoC5/CapSense_CSD_CSHL.c ****             /* Initialize Baseline, Signal and debounce counters */ 
 216:Generated_Source\PSoC5/CapSense_CSD_CSHL.c ****             CapSense_CSD_BaseInit(sensor);
 217:Generated_Source\PSoC5/CapSense_CSD_CSHL.c ****         }
 218:Generated_Source\PSoC5/CapSense_CSD_CSHL.c ****         
 219:Generated_Source\PSoC5/CapSense_CSD_CSHL.c ****         if(sensor < CapSense_CSD_TOTAL_SENSOR_COUNT__CH1)
 220:Generated_Source\PSoC5/CapSense_CSD_CSHL.c ****         {
 221:Generated_Source\PSoC5/CapSense_CSD_CSHL.c ****             /* Initialize Baseline, Signal and debounce counters */
 222:Generated_Source\PSoC5/CapSense_CSD_CSHL.c ****             CapSense_CSD_BaseInit(sensor + CapSense_CSD_TOTAL_SENSOR_COUNT__CH0);
 223:Generated_Source\PSoC5/CapSense_CSD_CSHL.c ****         }
 224:Generated_Source\PSoC5/CapSense_CSD_CSHL.c ****     
 225:Generated_Source\PSoC5/CapSense_CSD_CSHL.c ****     #endif  /* (CapSense_CSD_DESIGN_TYPE == CapSense_CSD_ONE_CHANNEL_DESIGN) */
 226:Generated_Source\PSoC5/CapSense_CSD_CSHL.c **** }
ARM GAS  C:\Users\holge\AppData\Local\Temp\ccfhesHk.s 			page 8


 174              		.loc 1 226 0
 175 0026 00BF     		nop
 176 0028 0837     		adds	r7, r7, #8
 177              		.cfi_def_cfa_offset 8
 178 002a BD46     		mov	sp, r7
 179              		.cfi_def_cfa_register 13
 180              		@ sp needed
 181 002c 80BD     		pop	{r7, pc}
 182              		.cfi_endproc
 183              	.LFE1:
 184              		.size	CapSense_CSD_InitializeSensorBaseline, .-CapSense_CSD_InitializeSensorBaseline
 185 002e 00BF     		.section	.text.CapSense_CSD_InitializeAllBaselines,"ax",%progbits
 186              		.align	2
 187              		.global	CapSense_CSD_InitializeAllBaselines
 188              		.thumb
 189              		.thumb_func
 190              		.type	CapSense_CSD_InitializeAllBaselines, %function
 191              	CapSense_CSD_InitializeAllBaselines:
 192              	.LFB2:
 227:Generated_Source\PSoC5/CapSense_CSD_CSHL.c **** 
 228:Generated_Source\PSoC5/CapSense_CSD_CSHL.c **** 
 229:Generated_Source\PSoC5/CapSense_CSD_CSHL.c **** /*******************************************************************************
 230:Generated_Source\PSoC5/CapSense_CSD_CSHL.c **** * Function Name: CapSense_CSD_InitializeAllBaselines
 231:Generated_Source\PSoC5/CapSense_CSD_CSHL.c **** ********************************************************************************
 232:Generated_Source\PSoC5/CapSense_CSD_CSHL.c **** *
 233:Generated_Source\PSoC5/CapSense_CSD_CSHL.c **** * Summary:
 234:Generated_Source\PSoC5/CapSense_CSD_CSHL.c **** *  Uses the CapSense_CSD_InitializeSensorBaseline function to loads the 
 235:Generated_Source\PSoC5/CapSense_CSD_CSHL.c **** *  CapSense_CSD_sensorBaseline[] array with an initial values by scanning 
 236:Generated_Source\PSoC5/CapSense_CSD_CSHL.c **** *  all sensors. The raw count values are copied into the baseline array for 
 237:Generated_Source\PSoC5/CapSense_CSD_CSHL.c **** *  all sensors. The raw data filters are initialized if enabled.
 238:Generated_Source\PSoC5/CapSense_CSD_CSHL.c **** *
 239:Generated_Source\PSoC5/CapSense_CSD_CSHL.c **** * Parameters:
 240:Generated_Source\PSoC5/CapSense_CSD_CSHL.c **** *  None
 241:Generated_Source\PSoC5/CapSense_CSD_CSHL.c **** *
 242:Generated_Source\PSoC5/CapSense_CSD_CSHL.c **** * Return:
 243:Generated_Source\PSoC5/CapSense_CSD_CSHL.c **** *  None
 244:Generated_Source\PSoC5/CapSense_CSD_CSHL.c **** *
 245:Generated_Source\PSoC5/CapSense_CSD_CSHL.c **** * Reentrant:
 246:Generated_Source\PSoC5/CapSense_CSD_CSHL.c **** *  No
 247:Generated_Source\PSoC5/CapSense_CSD_CSHL.c **** *
 248:Generated_Source\PSoC5/CapSense_CSD_CSHL.c **** *******************************************************************************/
 249:Generated_Source\PSoC5/CapSense_CSD_CSHL.c **** void CapSense_CSD_InitializeAllBaselines(void)
 250:Generated_Source\PSoC5/CapSense_CSD_CSHL.c ****                           
 251:Generated_Source\PSoC5/CapSense_CSD_CSHL.c **** {
 193              		.loc 1 251 0
 194              		.cfi_startproc
 195              		@ args = 0, pretend = 0, frame = 8
 196              		@ frame_needed = 1, uses_anonymous_args = 0
 197 0000 80B5     		push	{r7, lr}
 198              		.cfi_def_cfa_offset 8
 199              		.cfi_offset 7, -8
 200              		.cfi_offset 14, -4
 201 0002 82B0     		sub	sp, sp, #8
 202              		.cfi_def_cfa_offset 16
 203 0004 00AF     		add	r7, sp, #0
 204              		.cfi_def_cfa_register 7
 252:Generated_Source\PSoC5/CapSense_CSD_CSHL.c ****     uint8 i;
ARM GAS  C:\Users\holge\AppData\Local\Temp\ccfhesHk.s 			page 9


 253:Generated_Source\PSoC5/CapSense_CSD_CSHL.c ****     
 254:Generated_Source\PSoC5/CapSense_CSD_CSHL.c ****     /* The baseline initialize by sensor of sensor pair */
 255:Generated_Source\PSoC5/CapSense_CSD_CSHL.c ****     for(i = 0u; i < CapSense_CSD_TOTAL_SCANSLOT_COUNT; i++)
 205              		.loc 1 255 0
 206 0006 0023     		movs	r3, #0
 207 0008 FB71     		strb	r3, [r7, #7]
 208 000a 06E0     		b	.L7
 209              	.L8:
 256:Generated_Source\PSoC5/CapSense_CSD_CSHL.c ****     {
 257:Generated_Source\PSoC5/CapSense_CSD_CSHL.c ****         CapSense_CSD_InitializeSensorBaseline(i);
 210              		.loc 1 257 0 discriminator 3
 211 000c FB79     		ldrb	r3, [r7, #7]	@ zero_extendqisi2
 212 000e 1846     		mov	r0, r3
 213 0010 FFF7FEFF 		bl	CapSense_CSD_InitializeSensorBaseline
 255:Generated_Source\PSoC5/CapSense_CSD_CSHL.c ****     {
 214              		.loc 1 255 0 discriminator 3
 215 0014 FB79     		ldrb	r3, [r7, #7]	@ zero_extendqisi2
 216 0016 0133     		adds	r3, r3, #1
 217 0018 FB71     		strb	r3, [r7, #7]
 218              	.L7:
 255:Generated_Source\PSoC5/CapSense_CSD_CSHL.c ****     {
 219              		.loc 1 255 0 is_stmt 0 discriminator 1
 220 001a FB79     		ldrb	r3, [r7, #7]	@ zero_extendqisi2
 221 001c 042B     		cmp	r3, #4
 222 001e F5D9     		bls	.L8
 258:Generated_Source\PSoC5/CapSense_CSD_CSHL.c ****     }
 259:Generated_Source\PSoC5/CapSense_CSD_CSHL.c **** }
 223              		.loc 1 259 0 is_stmt 1
 224 0020 00BF     		nop
 225 0022 0837     		adds	r7, r7, #8
 226              		.cfi_def_cfa_offset 8
 227 0024 BD46     		mov	sp, r7
 228              		.cfi_def_cfa_register 13
 229              		@ sp needed
 230 0026 80BD     		pop	{r7, pc}
 231              		.cfi_endproc
 232              	.LFE2:
 233              		.size	CapSense_CSD_InitializeAllBaselines, .-CapSense_CSD_InitializeAllBaselines
 234              		.section	.text.CapSense_CSD_InitializeEnabledBaselines,"ax",%progbits
 235              		.align	2
 236              		.global	CapSense_CSD_InitializeEnabledBaselines
 237              		.thumb
 238              		.thumb_func
 239              		.type	CapSense_CSD_InitializeEnabledBaselines, %function
 240              	CapSense_CSD_InitializeEnabledBaselines:
 241              	.LFB3:
 260:Generated_Source\PSoC5/CapSense_CSD_CSHL.c **** 
 261:Generated_Source\PSoC5/CapSense_CSD_CSHL.c **** 
 262:Generated_Source\PSoC5/CapSense_CSD_CSHL.c **** /*******************************************************************************
 263:Generated_Source\PSoC5/CapSense_CSD_CSHL.c **** * Function Name: CapSense_CSD_InitializeEnabledBaselines
 264:Generated_Source\PSoC5/CapSense_CSD_CSHL.c **** ********************************************************************************
 265:Generated_Source\PSoC5/CapSense_CSD_CSHL.c **** *
 266:Generated_Source\PSoC5/CapSense_CSD_CSHL.c **** * Summary:
 267:Generated_Source\PSoC5/CapSense_CSD_CSHL.c **** *  Scans all enabled widgets and the raw count values are copied into the 
 268:Generated_Source\PSoC5/CapSense_CSD_CSHL.c **** *  baseline array for all sensors enabled in scanning process. Baselines 
 269:Generated_Source\PSoC5/CapSense_CSD_CSHL.c **** *  initialize with zero values for sensors disabled from scanning process. 
 270:Generated_Source\PSoC5/CapSense_CSD_CSHL.c **** *  The raw data filters are initialized if enabled.
ARM GAS  C:\Users\holge\AppData\Local\Temp\ccfhesHk.s 			page 10


 271:Generated_Source\PSoC5/CapSense_CSD_CSHL.c **** *
 272:Generated_Source\PSoC5/CapSense_CSD_CSHL.c **** * Parameters:
 273:Generated_Source\PSoC5/CapSense_CSD_CSHL.c **** *  None
 274:Generated_Source\PSoC5/CapSense_CSD_CSHL.c **** *
 275:Generated_Source\PSoC5/CapSense_CSD_CSHL.c **** * Return:
 276:Generated_Source\PSoC5/CapSense_CSD_CSHL.c **** *  None
 277:Generated_Source\PSoC5/CapSense_CSD_CSHL.c **** *
 278:Generated_Source\PSoC5/CapSense_CSD_CSHL.c **** * Reentrant:
 279:Generated_Source\PSoC5/CapSense_CSD_CSHL.c **** *  No
 280:Generated_Source\PSoC5/CapSense_CSD_CSHL.c **** *
 281:Generated_Source\PSoC5/CapSense_CSD_CSHL.c **** *******************************************************************************/
 282:Generated_Source\PSoC5/CapSense_CSD_CSHL.c **** void CapSense_CSD_InitializeEnabledBaselines(void)
 283:Generated_Source\PSoC5/CapSense_CSD_CSHL.c ****                              
 284:Generated_Source\PSoC5/CapSense_CSD_CSHL.c **** {
 242              		.loc 1 284 0
 243              		.cfi_startproc
 244              		@ args = 0, pretend = 0, frame = 8
 245              		@ frame_needed = 1, uses_anonymous_args = 0
 246 0000 80B5     		push	{r7, lr}
 247              		.cfi_def_cfa_offset 8
 248              		.cfi_offset 7, -8
 249              		.cfi_offset 14, -4
 250 0002 82B0     		sub	sp, sp, #8
 251              		.cfi_def_cfa_offset 16
 252 0004 00AF     		add	r7, sp, #0
 253              		.cfi_def_cfa_register 7
 285:Generated_Source\PSoC5/CapSense_CSD_CSHL.c ****     uint8 i;
 286:Generated_Source\PSoC5/CapSense_CSD_CSHL.c ****     uint8 pos;
 287:Generated_Source\PSoC5/CapSense_CSD_CSHL.c ****     uint8 enMask;
 288:Generated_Source\PSoC5/CapSense_CSD_CSHL.c ****     
 289:Generated_Source\PSoC5/CapSense_CSD_CSHL.c ****     CapSense_CSD_ScanEnabledWidgets();
 254              		.loc 1 289 0
 255 0006 FFF7FEFF 		bl	CapSense_CSD_ScanEnabledWidgets
 290:Generated_Source\PSoC5/CapSense_CSD_CSHL.c ****     while(CapSense_CSD_IsBusy() != 0u)
 256              		.loc 1 290 0
 257 000a 00BF     		nop
 258              	.L10:
 259              		.loc 1 290 0 is_stmt 0 discriminator 1
 260 000c FFF7FEFF 		bl	CapSense_CSD_IsBusy
 261 0010 0346     		mov	r3, r0
 262 0012 002B     		cmp	r3, #0
 263 0014 FAD1     		bne	.L10
 291:Generated_Source\PSoC5/CapSense_CSD_CSHL.c ****     {
 292:Generated_Source\PSoC5/CapSense_CSD_CSHL.c ****         /* Wait while busy */
 293:Generated_Source\PSoC5/CapSense_CSD_CSHL.c ****     }
 294:Generated_Source\PSoC5/CapSense_CSD_CSHL.c ****     
 295:Generated_Source\PSoC5/CapSense_CSD_CSHL.c ****     for(i = 0u; i < CapSense_CSD_TOTAL_SENSOR_COUNT; i++)
 264              		.loc 1 295 0 is_stmt 1
 265 0016 0023     		movs	r3, #0
 266 0018 FB71     		strb	r3, [r7, #7]
 267 001a 1DE0     		b	.L11
 268              	.L13:
 296:Generated_Source\PSoC5/CapSense_CSD_CSHL.c ****     {
 297:Generated_Source\PSoC5/CapSense_CSD_CSHL.c ****         pos = (i >> 3u);
 269              		.loc 1 297 0
 270 001c FB79     		ldrb	r3, [r7, #7]	@ zero_extendqisi2
 271 001e DB08     		lsrs	r3, r3, #3
ARM GAS  C:\Users\holge\AppData\Local\Temp\ccfhesHk.s 			page 11


 272 0020 BB71     		strb	r3, [r7, #6]
 298:Generated_Source\PSoC5/CapSense_CSD_CSHL.c ****         enMask = 0x01u << (i & 0x07u);
 273              		.loc 1 298 0
 274 0022 FB79     		ldrb	r3, [r7, #7]	@ zero_extendqisi2
 275 0024 03F00703 		and	r3, r3, #7
 276 0028 0122     		movs	r2, #1
 277 002a 02FA03F3 		lsl	r3, r2, r3
 278 002e 7B71     		strb	r3, [r7, #5]
 299:Generated_Source\PSoC5/CapSense_CSD_CSHL.c ****         
 300:Generated_Source\PSoC5/CapSense_CSD_CSHL.c ****         /* Clear raw data if sensor is disabled from scanning process */
 301:Generated_Source\PSoC5/CapSense_CSD_CSHL.c ****         if((CapSense_CSD_sensorEnableMask[pos] & enMask) == 0u)
 279              		.loc 1 301 0
 280 0030 BB79     		ldrb	r3, [r7, #6]	@ zero_extendqisi2
 281 0032 0D4A     		ldr	r2, .L14
 282 0034 D25C     		ldrb	r2, [r2, r3]	@ zero_extendqisi2
 283 0036 7B79     		ldrb	r3, [r7, #5]
 284 0038 1340     		ands	r3, r3, r2
 285 003a DBB2     		uxtb	r3, r3
 286 003c 002B     		cmp	r3, #0
 287 003e 04D1     		bne	.L12
 302:Generated_Source\PSoC5/CapSense_CSD_CSHL.c ****         {
 303:Generated_Source\PSoC5/CapSense_CSD_CSHL.c ****             CapSense_CSD_sensorRaw[i] = 0u;
 288              		.loc 1 303 0
 289 0040 FB79     		ldrb	r3, [r7, #7]	@ zero_extendqisi2
 290 0042 0A4A     		ldr	r2, .L14+4
 291 0044 0021     		movs	r1, #0
 292 0046 22F81310 		strh	r1, [r2, r3, lsl #1]	@ movhi
 293              	.L12:
 304:Generated_Source\PSoC5/CapSense_CSD_CSHL.c ****         }
 305:Generated_Source\PSoC5/CapSense_CSD_CSHL.c ****         
 306:Generated_Source\PSoC5/CapSense_CSD_CSHL.c ****         /* Initialize baselines */
 307:Generated_Source\PSoC5/CapSense_CSD_CSHL.c ****         CapSense_CSD_BaseInit(i);
 294              		.loc 1 307 0 discriminator 2
 295 004a FB79     		ldrb	r3, [r7, #7]	@ zero_extendqisi2
 296 004c 1846     		mov	r0, r3
 297 004e FFF7FEFF 		bl	CapSense_CSD_BaseInit
 295:Generated_Source\PSoC5/CapSense_CSD_CSHL.c ****     {
 298              		.loc 1 295 0 discriminator 2
 299 0052 FB79     		ldrb	r3, [r7, #7]	@ zero_extendqisi2
 300 0054 0133     		adds	r3, r3, #1
 301 0056 FB71     		strb	r3, [r7, #7]
 302              	.L11:
 295:Generated_Source\PSoC5/CapSense_CSD_CSHL.c ****     {
 303              		.loc 1 295 0 is_stmt 0 discriminator 1
 304 0058 FB79     		ldrb	r3, [r7, #7]	@ zero_extendqisi2
 305 005a 042B     		cmp	r3, #4
 306 005c DED9     		bls	.L13
 308:Generated_Source\PSoC5/CapSense_CSD_CSHL.c ****     }
 309:Generated_Source\PSoC5/CapSense_CSD_CSHL.c **** }  
 307              		.loc 1 309 0 is_stmt 1
 308 005e 00BF     		nop
 309 0060 0837     		adds	r7, r7, #8
 310              		.cfi_def_cfa_offset 8
 311 0062 BD46     		mov	sp, r7
 312              		.cfi_def_cfa_register 13
 313              		@ sp needed
 314 0064 80BD     		pop	{r7, pc}
ARM GAS  C:\Users\holge\AppData\Local\Temp\ccfhesHk.s 			page 12


 315              	.L15:
 316 0066 00BF     		.align	2
 317              	.L14:
 318 0068 00000000 		.word	CapSense_CSD_sensorEnableMask
 319 006c 00000000 		.word	CapSense_CSD_sensorRaw
 320              		.cfi_endproc
 321              	.LFE3:
 322              		.size	CapSense_CSD_InitializeEnabledBaselines, .-CapSense_CSD_InitializeEnabledBaselines
 323              		.section	.text.CapSense_CSD_UpdateSensorBaseline,"ax",%progbits
 324              		.align	2
 325              		.global	CapSense_CSD_UpdateSensorBaseline
 326              		.thumb
 327              		.thumb_func
 328              		.type	CapSense_CSD_UpdateSensorBaseline, %function
 329              	CapSense_CSD_UpdateSensorBaseline:
 330              	.LFB4:
 310:Generated_Source\PSoC5/CapSense_CSD_CSHL.c **** 
 311:Generated_Source\PSoC5/CapSense_CSD_CSHL.c **** 
 312:Generated_Source\PSoC5/CapSense_CSD_CSHL.c **** /*******************************************************************************
 313:Generated_Source\PSoC5/CapSense_CSD_CSHL.c **** * Function Name: CapSense_CSD_UpdateSensorBaseline
 314:Generated_Source\PSoC5/CapSense_CSD_CSHL.c **** ********************************************************************************
 315:Generated_Source\PSoC5/CapSense_CSD_CSHL.c **** *
 316:Generated_Source\PSoC5/CapSense_CSD_CSHL.c **** * Summary:
 317:Generated_Source\PSoC5/CapSense_CSD_CSHL.c **** *  Updates the CapSense_CSD_sensorBaseline[sensor] array element using the 
 318:Generated_Source\PSoC5/CapSense_CSD_CSHL.c **** *  LP filter with k = 256. The signal calculates the difference of count by 
 319:Generated_Source\PSoC5/CapSense_CSD_CSHL.c **** *  subtracting the previous baseline from the current raw count value and stores
 320:Generated_Source\PSoC5/CapSense_CSD_CSHL.c **** *  it in CapSense_CSD_SensorSignal[sensor]. 
 321:Generated_Source\PSoC5/CapSense_CSD_CSHL.c **** *  If auto reset option is enabled the baseline updated regards noise threshold. 
 322:Generated_Source\PSoC5/CapSense_CSD_CSHL.c **** *  If auto reset option is disabled the baseline stops updating if signal is 
 323:Generated_Source\PSoC5/CapSense_CSD_CSHL.c **** *  greater that zero and baseline loads with raw count value if signal is less 
 324:Generated_Source\PSoC5/CapSense_CSD_CSHL.c **** *  that noise threshold.
 325:Generated_Source\PSoC5/CapSense_CSD_CSHL.c **** *  Raw data filters are applied to the values if enabled before baseline 
 326:Generated_Source\PSoC5/CapSense_CSD_CSHL.c **** *  calculation.
 327:Generated_Source\PSoC5/CapSense_CSD_CSHL.c **** *
 328:Generated_Source\PSoC5/CapSense_CSD_CSHL.c **** * Parameters:
 329:Generated_Source\PSoC5/CapSense_CSD_CSHL.c **** *  sensor:  Sensor number.
 330:Generated_Source\PSoC5/CapSense_CSD_CSHL.c **** *
 331:Generated_Source\PSoC5/CapSense_CSD_CSHL.c **** * Return:
 332:Generated_Source\PSoC5/CapSense_CSD_CSHL.c **** *  None
 333:Generated_Source\PSoC5/CapSense_CSD_CSHL.c **** *
 334:Generated_Source\PSoC5/CapSense_CSD_CSHL.c **** * Global Variables:
 335:Generated_Source\PSoC5/CapSense_CSD_CSHL.c **** *  CapSense_CSD_sensorBaseline[]    - used to store baseline value.
 336:Generated_Source\PSoC5/CapSense_CSD_CSHL.c **** *  CapSense_CSD_sensorBaselineLow[] - used to store fraction byte of 
 337:Generated_Source\PSoC5/CapSense_CSD_CSHL.c **** *  baseline value.
 338:Generated_Source\PSoC5/CapSense_CSD_CSHL.c **** *  CapSense_CSD_sensorSignal[]      - used to store diffence between 
 339:Generated_Source\PSoC5/CapSense_CSD_CSHL.c **** *  current value of raw data and previous value of baseline.
 340:Generated_Source\PSoC5/CapSense_CSD_CSHL.c **** *  CapSense_CSD_rawFilterData1[]    - used to store previous sample of 
 341:Generated_Source\PSoC5/CapSense_CSD_CSHL.c **** *  any enabled raw data filter.
 342:Generated_Source\PSoC5/CapSense_CSD_CSHL.c **** *  CapSense_CSD_rawFilterData2[]    - used to store before previous sample
 343:Generated_Source\PSoC5/CapSense_CSD_CSHL.c **** *  of enabled raw data filter. Only required for median or average filters.
 344:Generated_Source\PSoC5/CapSense_CSD_CSHL.c **** *
 345:Generated_Source\PSoC5/CapSense_CSD_CSHL.c **** * Reentrant:
 346:Generated_Source\PSoC5/CapSense_CSD_CSHL.c **** *  No
 347:Generated_Source\PSoC5/CapSense_CSD_CSHL.c **** *
 348:Generated_Source\PSoC5/CapSense_CSD_CSHL.c **** *******************************************************************************/
 349:Generated_Source\PSoC5/CapSense_CSD_CSHL.c ****  void CapSense_CSD_UpdateSensorBaseline(uint8 sensor)
 350:Generated_Source\PSoC5/CapSense_CSD_CSHL.c ****                                  
ARM GAS  C:\Users\holge\AppData\Local\Temp\ccfhesHk.s 			page 13


 351:Generated_Source\PSoC5/CapSense_CSD_CSHL.c **** {
 331              		.loc 1 351 0
 332              		.cfi_startproc
 333              		@ args = 0, pretend = 0, frame = 24
 334              		@ frame_needed = 1, uses_anonymous_args = 0
 335 0000 80B5     		push	{r7, lr}
 336              		.cfi_def_cfa_offset 8
 337              		.cfi_offset 7, -8
 338              		.cfi_offset 14, -4
 339 0002 86B0     		sub	sp, sp, #24
 340              		.cfi_def_cfa_offset 32
 341 0004 00AF     		add	r7, sp, #0
 342              		.cfi_def_cfa_register 7
 343 0006 0346     		mov	r3, r0
 344 0008 FB71     		strb	r3, [r7, #7]
 352:Generated_Source\PSoC5/CapSense_CSD_CSHL.c ****     uint32 calc;
 353:Generated_Source\PSoC5/CapSense_CSD_CSHL.c ****     uint16 tempRaw;
 354:Generated_Source\PSoC5/CapSense_CSD_CSHL.c ****     uint16 filteredRawData;
 355:Generated_Source\PSoC5/CapSense_CSD_CSHL.c ****     uint8 widget = CapSense_CSD_widgetNumber[sensor];
 345              		.loc 1 355 0
 346 000a FB79     		ldrb	r3, [r7, #7]	@ zero_extendqisi2
 347 000c 444A     		ldr	r2, .L26
 348 000e D35C     		ldrb	r3, [r2, r3]
 349 0010 7B75     		strb	r3, [r7, #21]
 356:Generated_Source\PSoC5/CapSense_CSD_CSHL.c ****     uint16 noiseThreshold = CapSense_CSD_noiseThreshold[widget];
 350              		.loc 1 356 0
 351 0012 2A23     		movs	r3, #42
 352 0014 7B82     		strh	r3, [r7, #18]	@ movhi
 357:Generated_Source\PSoC5/CapSense_CSD_CSHL.c ****     
 358:Generated_Source\PSoC5/CapSense_CSD_CSHL.c ****     #if (CapSense_CSD_TOTAL_GENERICS_COUNT)
 359:Generated_Source\PSoC5/CapSense_CSD_CSHL.c ****         /* Exclude generic widget */
 360:Generated_Source\PSoC5/CapSense_CSD_CSHL.c ****         if(widget < CapSense_CSD_END_OF_WIDGETS_INDEX)
 361:Generated_Source\PSoC5/CapSense_CSD_CSHL.c ****         {
 362:Generated_Source\PSoC5/CapSense_CSD_CSHL.c ****     #endif  /* CapSense_CSD_TOTAL_GENERICS_COUNT */
 363:Generated_Source\PSoC5/CapSense_CSD_CSHL.c ****     
 364:Generated_Source\PSoC5/CapSense_CSD_CSHL.c ****     filteredRawData = CapSense_CSD_sensorRaw[sensor];
 353              		.loc 1 364 0
 354 0016 FB79     		ldrb	r3, [r7, #7]	@ zero_extendqisi2
 355 0018 424A     		ldr	r2, .L26+4
 356 001a 32F81330 		ldrh	r3, [r2, r3, lsl #1]	@ movhi
 357 001e 3B82     		strh	r3, [r7, #16]	@ movhi
 365:Generated_Source\PSoC5/CapSense_CSD_CSHL.c ****     
 366:Generated_Source\PSoC5/CapSense_CSD_CSHL.c ****     #if (CapSense_CSD_RAW_FILTER_MASK & CapSense_CSD_MEDIAN_FILTER)
 367:Generated_Source\PSoC5/CapSense_CSD_CSHL.c ****         tempRaw = filteredRawData;
 368:Generated_Source\PSoC5/CapSense_CSD_CSHL.c ****         filteredRawData = CapSense_CSD_MedianFilter(filteredRawData, CapSense_CSD_rawFilterData1[se
 369:Generated_Source\PSoC5/CapSense_CSD_CSHL.c ****                                                         CapSense_CSD_rawFilterData2[sensor]);
 370:Generated_Source\PSoC5/CapSense_CSD_CSHL.c ****         CapSense_CSD_rawFilterData2[sensor] = CapSense_CSD_rawFilterData1[sensor];
 371:Generated_Source\PSoC5/CapSense_CSD_CSHL.c ****         CapSense_CSD_rawFilterData1[sensor] = tempRaw;
 372:Generated_Source\PSoC5/CapSense_CSD_CSHL.c ****         
 373:Generated_Source\PSoC5/CapSense_CSD_CSHL.c ****     #elif (CapSense_CSD_RAW_FILTER_MASK & CapSense_CSD_AVERAGING_FILTER)
 374:Generated_Source\PSoC5/CapSense_CSD_CSHL.c ****         tempRaw = filteredRawData;
 375:Generated_Source\PSoC5/CapSense_CSD_CSHL.c ****         filteredRawData = CapSense_CSD_AveragingFilter(filteredRawData, CapSense_CSD_rawFilterData1
 376:Generated_Source\PSoC5/CapSense_CSD_CSHL.c ****                                                            CapSense_CSD_rawFilterData2[sensor]);
 377:Generated_Source\PSoC5/CapSense_CSD_CSHL.c ****         CapSense_CSD_rawFilterData2[sensor] = CapSense_CSD_rawFilterData1[sensor];
 378:Generated_Source\PSoC5/CapSense_CSD_CSHL.c ****         CapSense_CSD_rawFilterData1[sensor] = tempRaw;
 379:Generated_Source\PSoC5/CapSense_CSD_CSHL.c ****         
 380:Generated_Source\PSoC5/CapSense_CSD_CSHL.c ****     #elif (CapSense_CSD_RAW_FILTER_MASK & CapSense_CSD_IIR2_FILTER)
ARM GAS  C:\Users\holge\AppData\Local\Temp\ccfhesHk.s 			page 14


 381:Generated_Source\PSoC5/CapSense_CSD_CSHL.c ****         filteredRawData = CapSense_CSD_IIR2Filter(filteredRawData, CapSense_CSD_rawFilterData1[sens
 382:Generated_Source\PSoC5/CapSense_CSD_CSHL.c ****         CapSense_CSD_rawFilterData1[sensor] = filteredRawData;
 383:Generated_Source\PSoC5/CapSense_CSD_CSHL.c ****         
 384:Generated_Source\PSoC5/CapSense_CSD_CSHL.c ****     #elif (CapSense_CSD_RAW_FILTER_MASK & CapSense_CSD_IIR4_FILTER)
 385:Generated_Source\PSoC5/CapSense_CSD_CSHL.c ****         filteredRawData = CapSense_CSD_IIR4Filter(filteredRawData, CapSense_CSD_rawFilterData1[sens
 386:Generated_Source\PSoC5/CapSense_CSD_CSHL.c ****         CapSense_CSD_rawFilterData1[sensor] = filteredRawData;
 387:Generated_Source\PSoC5/CapSense_CSD_CSHL.c ****             
 388:Generated_Source\PSoC5/CapSense_CSD_CSHL.c ****     #elif (CapSense_CSD_RAW_FILTER_MASK & CapSense_CSD_JITTER_FILTER)
 389:Generated_Source\PSoC5/CapSense_CSD_CSHL.c ****         filteredRawData = CapSense_CSD_JitterFilter(filteredRawData, CapSense_CSD_rawFilterData1[se
 390:Generated_Source\PSoC5/CapSense_CSD_CSHL.c ****         CapSense_CSD_rawFilterData1[sensor] = filteredRawData;
 391:Generated_Source\PSoC5/CapSense_CSD_CSHL.c ****         
 392:Generated_Source\PSoC5/CapSense_CSD_CSHL.c ****     #elif (CapSense_CSD_RAW_FILTER_MASK & CapSense_CSD_IIR8_FILTER)
 393:Generated_Source\PSoC5/CapSense_CSD_CSHL.c ****         filteredRawData = CapSense_CSD_IIR8Filter(filteredRawData, CapSense_CSD_rawFilterData1[sens
 394:Generated_Source\PSoC5/CapSense_CSD_CSHL.c ****         CapSense_CSD_rawFilterData1[sensor] = filteredRawData;
 395:Generated_Source\PSoC5/CapSense_CSD_CSHL.c ****         
 396:Generated_Source\PSoC5/CapSense_CSD_CSHL.c ****     #elif (CapSense_CSD_RAW_FILTER_MASK & CapSense_CSD_IIR16_FILTER)
 397:Generated_Source\PSoC5/CapSense_CSD_CSHL.c ****         filteredRawData = CapSense_CSD_IIR16Filter(filteredRawData, CapSense_CSD_rawFilterData1[sen
 398:Generated_Source\PSoC5/CapSense_CSD_CSHL.c ****         CapSense_CSD_rawFilterData1[sensor] = filteredRawData;
 399:Generated_Source\PSoC5/CapSense_CSD_CSHL.c ****         
 400:Generated_Source\PSoC5/CapSense_CSD_CSHL.c ****     #else
 401:Generated_Source\PSoC5/CapSense_CSD_CSHL.c ****         /* No Raw filters */
 402:Generated_Source\PSoC5/CapSense_CSD_CSHL.c ****     #endif  /* (CapSense_CSD_RAW_FILTER_MASK & CapSense_CSD_MEDIAN_FILTER) */
 403:Generated_Source\PSoC5/CapSense_CSD_CSHL.c ****     
 404:Generated_Source\PSoC5/CapSense_CSD_CSHL.c ****     #if (CapSense_CSD_TUNING_METHOD == CapSense_CSD_AUTO_TUNING)
 405:Generated_Source\PSoC5/CapSense_CSD_CSHL.c ****         CapSense_CSD_CalculateThresholds(sensor);
 406:Generated_Source\PSoC5/CapSense_CSD_CSHL.c ****     #endif /* (CapSense_CSD_TUNING_METHOD == CapSense_CSD_AUTO_TUNING) */
 407:Generated_Source\PSoC5/CapSense_CSD_CSHL.c **** 
 408:Generated_Source\PSoC5/CapSense_CSD_CSHL.c **** 
 409:Generated_Source\PSoC5/CapSense_CSD_CSHL.c ****     /* Baseline calculation */
 410:Generated_Source\PSoC5/CapSense_CSD_CSHL.c ****     /* Calculate difference RawData[cur] - Baseline[prev] */
 411:Generated_Source\PSoC5/CapSense_CSD_CSHL.c ****     if(filteredRawData >= CapSense_CSD_sensorBaseline[sensor])
 358              		.loc 1 411 0
 359 0020 FB79     		ldrb	r3, [r7, #7]	@ zero_extendqisi2
 360 0022 414A     		ldr	r2, .L26+8
 361 0024 32F81330 		ldrh	r3, [r2, r3, lsl #1]
 362 0028 3A8A     		ldrh	r2, [r7, #16]
 363 002a 9A42     		cmp	r2, r3
 364 002c 09D3     		bcc	.L17
 412:Generated_Source\PSoC5/CapSense_CSD_CSHL.c ****     {
 413:Generated_Source\PSoC5/CapSense_CSD_CSHL.c ****         tempRaw = filteredRawData - CapSense_CSD_sensorBaseline[sensor];
 365              		.loc 1 413 0
 366 002e FB79     		ldrb	r3, [r7, #7]	@ zero_extendqisi2
 367 0030 3D4A     		ldr	r2, .L26+8
 368 0032 32F81330 		ldrh	r3, [r2, r3, lsl #1]
 369 0036 3A8A     		ldrh	r2, [r7, #16]	@ movhi
 370 0038 D31A     		subs	r3, r2, r3
 371 003a FB82     		strh	r3, [r7, #22]	@ movhi
 414:Generated_Source\PSoC5/CapSense_CSD_CSHL.c ****         widget = 1u;    /* Positive difference - Calculate the Signal */
 372              		.loc 1 414 0
 373 003c 0123     		movs	r3, #1
 374 003e 7B75     		strb	r3, [r7, #21]
 375 0040 08E0     		b	.L18
 376              	.L17:
 415:Generated_Source\PSoC5/CapSense_CSD_CSHL.c ****     }
 416:Generated_Source\PSoC5/CapSense_CSD_CSHL.c ****     else
 417:Generated_Source\PSoC5/CapSense_CSD_CSHL.c ****     {
 418:Generated_Source\PSoC5/CapSense_CSD_CSHL.c ****         tempRaw = CapSense_CSD_sensorBaseline[sensor] - filteredRawData;
ARM GAS  C:\Users\holge\AppData\Local\Temp\ccfhesHk.s 			page 15


 377              		.loc 1 418 0
 378 0042 FB79     		ldrb	r3, [r7, #7]	@ zero_extendqisi2
 379 0044 384A     		ldr	r2, .L26+8
 380 0046 32F81320 		ldrh	r2, [r2, r3, lsl #1]
 381 004a 3B8A     		ldrh	r3, [r7, #16]	@ movhi
 382 004c D31A     		subs	r3, r2, r3
 383 004e FB82     		strh	r3, [r7, #22]	@ movhi
 419:Generated_Source\PSoC5/CapSense_CSD_CSHL.c ****         widget = 0u;    /* Negative difference - Do NOT calculate the Signal */
 384              		.loc 1 419 0
 385 0050 0023     		movs	r3, #0
 386 0052 7B75     		strb	r3, [r7, #21]
 387              	.L18:
 420:Generated_Source\PSoC5/CapSense_CSD_CSHL.c ****     }
 421:Generated_Source\PSoC5/CapSense_CSD_CSHL.c **** 
 422:Generated_Source\PSoC5/CapSense_CSD_CSHL.c ****     if((widget == 0u) && (tempRaw > (uint16) CapSense_CSD_NEGATIVE_NOISE_THRESHOLD))
 388              		.loc 1 422 0
 389 0054 7B7D     		ldrb	r3, [r7, #21]	@ zero_extendqisi2
 390 0056 002B     		cmp	r3, #0
 391 0058 18D1     		bne	.L19
 392              		.loc 1 422 0 is_stmt 0 discriminator 1
 393 005a FB8A     		ldrh	r3, [r7, #22]
 394 005c 142B     		cmp	r3, #20
 395 005e 15D9     		bls	.L19
 423:Generated_Source\PSoC5/CapSense_CSD_CSHL.c ****     {
 424:Generated_Source\PSoC5/CapSense_CSD_CSHL.c ****         if(CapSense_CSD_lowBaselineResetCnt[sensor] >= CapSense_CSD_LOW_BASELINE_RESET)
 396              		.loc 1 424 0 is_stmt 1
 397 0060 FB79     		ldrb	r3, [r7, #7]	@ zero_extendqisi2
 398 0062 324A     		ldr	r2, .L26+12
 399 0064 D35C     		ldrb	r3, [r2, r3]	@ zero_extendqisi2
 400 0066 042B     		cmp	r3, #4
 401 0068 08D9     		bls	.L20
 425:Generated_Source\PSoC5/CapSense_CSD_CSHL.c ****         {
 426:Generated_Source\PSoC5/CapSense_CSD_CSHL.c ****             CapSense_CSD_BaseInit(sensor);
 402              		.loc 1 426 0
 403 006a FB79     		ldrb	r3, [r7, #7]	@ zero_extendqisi2
 404 006c 1846     		mov	r0, r3
 405 006e FFF7FEFF 		bl	CapSense_CSD_BaseInit
 427:Generated_Source\PSoC5/CapSense_CSD_CSHL.c ****             CapSense_CSD_lowBaselineResetCnt[sensor] = 0u;
 406              		.loc 1 427 0
 407 0072 FB79     		ldrb	r3, [r7, #7]	@ zero_extendqisi2
 408 0074 2D4A     		ldr	r2, .L26+12
 409 0076 0021     		movs	r1, #0
 410 0078 D154     		strb	r1, [r2, r3]
 424:Generated_Source\PSoC5/CapSense_CSD_CSHL.c ****         {
 411              		.loc 1 424 0
 412 007a 3AE0     		b	.L22
 413              	.L20:
 428:Generated_Source\PSoC5/CapSense_CSD_CSHL.c ****         }
 429:Generated_Source\PSoC5/CapSense_CSD_CSHL.c ****         else
 430:Generated_Source\PSoC5/CapSense_CSD_CSHL.c ****         {
 431:Generated_Source\PSoC5/CapSense_CSD_CSHL.c ****             CapSense_CSD_lowBaselineResetCnt[sensor]++;
 414              		.loc 1 431 0
 415 007c FB79     		ldrb	r3, [r7, #7]	@ zero_extendqisi2
 416 007e 2B4A     		ldr	r2, .L26+12
 417 0080 D25C     		ldrb	r2, [r2, r3]	@ zero_extendqisi2
 418 0082 0132     		adds	r2, r2, #1
 419 0084 D1B2     		uxtb	r1, r2
ARM GAS  C:\Users\holge\AppData\Local\Temp\ccfhesHk.s 			page 16


 420 0086 294A     		ldr	r2, .L26+12
 421 0088 D154     		strb	r1, [r2, r3]
 424:Generated_Source\PSoC5/CapSense_CSD_CSHL.c ****         {
 422              		.loc 1 424 0
 423 008a 32E0     		b	.L22
 424              	.L19:
 432:Generated_Source\PSoC5/CapSense_CSD_CSHL.c ****         }
 433:Generated_Source\PSoC5/CapSense_CSD_CSHL.c ****     }
 434:Generated_Source\PSoC5/CapSense_CSD_CSHL.c ****     else
 435:Generated_Source\PSoC5/CapSense_CSD_CSHL.c ****     {
 436:Generated_Source\PSoC5/CapSense_CSD_CSHL.c ****         #if (CapSense_CSD_AUTO_RESET == CapSense_CSD_AUTO_RESET_DISABLE)
 437:Generated_Source\PSoC5/CapSense_CSD_CSHL.c ****             /* Update Baseline if lower that noiseThreshold */
 438:Generated_Source\PSoC5/CapSense_CSD_CSHL.c ****             if ( (tempRaw <= (uint16) noiseThreshold) || 
 425              		.loc 1 438 0
 426 008c FA8A     		ldrh	r2, [r7, #22]
 427 008e 7B8A     		ldrh	r3, [r7, #18]
 428 0090 9A42     		cmp	r2, r3
 429 0092 05D9     		bls	.L23
 430              		.loc 1 438 0 is_stmt 0 discriminator 1
 431 0094 FB8A     		ldrh	r3, [r7, #22]
 432 0096 132B     		cmp	r3, #19
 433 0098 2BD8     		bhi	.L22
 439:Generated_Source\PSoC5/CapSense_CSD_CSHL.c ****                  ((tempRaw < (uint16) CapSense_CSD_NEGATIVE_NOISE_THRESHOLD)
 440:Generated_Source\PSoC5/CapSense_CSD_CSHL.c ****                    && (widget == 0u)))
 434              		.loc 1 440 0 is_stmt 1
 435 009a 7B7D     		ldrb	r3, [r7, #21]	@ zero_extendqisi2
 436 009c 002B     		cmp	r3, #0
 437 009e 28D1     		bne	.L22
 438              	.L23:
 441:Generated_Source\PSoC5/CapSense_CSD_CSHL.c ****             {
 442:Generated_Source\PSoC5/CapSense_CSD_CSHL.c ****         #endif /* (CapSense_CSD_AUTO_RESET == CapSense_CSD_AUTO_RESET_DISABLE) */
 443:Generated_Source\PSoC5/CapSense_CSD_CSHL.c ****                 /* Make full Baseline 23 bits */
 444:Generated_Source\PSoC5/CapSense_CSD_CSHL.c ****                 calc = (uint32) CapSense_CSD_sensorBaseline[sensor] << 8u;
 439              		.loc 1 444 0
 440 00a0 FB79     		ldrb	r3, [r7, #7]	@ zero_extendqisi2
 441 00a2 214A     		ldr	r2, .L26+8
 442 00a4 32F81330 		ldrh	r3, [r2, r3, lsl #1]
 443 00a8 1B02     		lsls	r3, r3, #8
 444 00aa FB60     		str	r3, [r7, #12]
 445:Generated_Source\PSoC5/CapSense_CSD_CSHL.c ****                 calc |= (uint32) CapSense_CSD_sensorBaselineLow[sensor];
 445              		.loc 1 445 0
 446 00ac FB79     		ldrb	r3, [r7, #7]	@ zero_extendqisi2
 447 00ae 204A     		ldr	r2, .L26+16
 448 00b0 D35C     		ldrb	r3, [r2, r3]	@ zero_extendqisi2
 449 00b2 1A46     		mov	r2, r3
 450 00b4 FB68     		ldr	r3, [r7, #12]
 451 00b6 1343     		orrs	r3, r3, r2
 452 00b8 FB60     		str	r3, [r7, #12]
 446:Generated_Source\PSoC5/CapSense_CSD_CSHL.c **** 
 447:Generated_Source\PSoC5/CapSense_CSD_CSHL.c ****                 /* Add Raw Data to Baseline */
 448:Generated_Source\PSoC5/CapSense_CSD_CSHL.c ****                 calc += filteredRawData;
 453              		.loc 1 448 0
 454 00ba 3B8A     		ldrh	r3, [r7, #16]
 455 00bc FA68     		ldr	r2, [r7, #12]
 456 00be 1344     		add	r3, r3, r2
 457 00c0 FB60     		str	r3, [r7, #12]
 449:Generated_Source\PSoC5/CapSense_CSD_CSHL.c **** 
ARM GAS  C:\Users\holge\AppData\Local\Temp\ccfhesHk.s 			page 17


 450:Generated_Source\PSoC5/CapSense_CSD_CSHL.c ****                 /* Sub the high Baseline */
 451:Generated_Source\PSoC5/CapSense_CSD_CSHL.c ****                 calc -= CapSense_CSD_sensorBaseline[sensor];
 458              		.loc 1 451 0
 459 00c2 FB79     		ldrb	r3, [r7, #7]	@ zero_extendqisi2
 460 00c4 184A     		ldr	r2, .L26+8
 461 00c6 32F81330 		ldrh	r3, [r2, r3, lsl #1]
 462 00ca 1A46     		mov	r2, r3
 463 00cc FB68     		ldr	r3, [r7, #12]
 464 00ce 9B1A     		subs	r3, r3, r2
 465 00d0 FB60     		str	r3, [r7, #12]
 452:Generated_Source\PSoC5/CapSense_CSD_CSHL.c **** 
 453:Generated_Source\PSoC5/CapSense_CSD_CSHL.c ****                 /* Put Baseline and BaselineLow */
 454:Generated_Source\PSoC5/CapSense_CSD_CSHL.c ****                 CapSense_CSD_sensorBaseline[sensor] = ((uint16) (calc >> 8u));
 466              		.loc 1 454 0
 467 00d2 FB79     		ldrb	r3, [r7, #7]	@ zero_extendqisi2
 468 00d4 FA68     		ldr	r2, [r7, #12]
 469 00d6 120A     		lsrs	r2, r2, #8
 470 00d8 91B2     		uxth	r1, r2
 471 00da 134A     		ldr	r2, .L26+8
 472 00dc 22F81310 		strh	r1, [r2, r3, lsl #1]	@ movhi
 455:Generated_Source\PSoC5/CapSense_CSD_CSHL.c ****                 CapSense_CSD_sensorBaselineLow[sensor] = ((uint8) calc);
 473              		.loc 1 455 0
 474 00e0 FB79     		ldrb	r3, [r7, #7]	@ zero_extendqisi2
 475 00e2 FA68     		ldr	r2, [r7, #12]
 476 00e4 D1B2     		uxtb	r1, r2
 477 00e6 124A     		ldr	r2, .L26+16
 478 00e8 D154     		strb	r1, [r2, r3]
 456:Generated_Source\PSoC5/CapSense_CSD_CSHL.c **** 
 457:Generated_Source\PSoC5/CapSense_CSD_CSHL.c ****                 CapSense_CSD_lowBaselineResetCnt[sensor] = 0u;
 479              		.loc 1 457 0
 480 00ea FB79     		ldrb	r3, [r7, #7]	@ zero_extendqisi2
 481 00ec 0F4A     		ldr	r2, .L26+12
 482 00ee 0021     		movs	r1, #0
 483 00f0 D154     		strb	r1, [r2, r3]
 484              	.L22:
 458:Generated_Source\PSoC5/CapSense_CSD_CSHL.c ****         #if (CapSense_CSD_AUTO_RESET == CapSense_CSD_AUTO_RESET_DISABLE)
 459:Generated_Source\PSoC5/CapSense_CSD_CSHL.c ****             }
 460:Generated_Source\PSoC5/CapSense_CSD_CSHL.c ****         #endif /* (CapSense_CSD_AUTO_RESET == CapSense_CSD_AUTO_RESET_DISABLE) */
 461:Generated_Source\PSoC5/CapSense_CSD_CSHL.c ****     }
 462:Generated_Source\PSoC5/CapSense_CSD_CSHL.c **** 
 463:Generated_Source\PSoC5/CapSense_CSD_CSHL.c ****     /* Calculate Signal if possitive difference > noiseThreshold */
 464:Generated_Source\PSoC5/CapSense_CSD_CSHL.c ****     if((tempRaw > (uint16) noiseThreshold) && (widget != 0u))
 485              		.loc 1 464 0
 486 00f2 FA8A     		ldrh	r2, [r7, #22]
 487 00f4 7B8A     		ldrh	r3, [r7, #18]
 488 00f6 9A42     		cmp	r2, r3
 489 00f8 08D9     		bls	.L24
 490              		.loc 1 464 0 is_stmt 0 discriminator 1
 491 00fa 7B7D     		ldrb	r3, [r7, #21]	@ zero_extendqisi2
 492 00fc 002B     		cmp	r3, #0
 493 00fe 05D0     		beq	.L24
 465:Generated_Source\PSoC5/CapSense_CSD_CSHL.c ****     {
 466:Generated_Source\PSoC5/CapSense_CSD_CSHL.c ****         #if (CapSense_CSD_SIGNAL_SIZE == CapSense_CSD_SIGNAL_SIZE_UINT8)
 467:Generated_Source\PSoC5/CapSense_CSD_CSHL.c ****             /* Over flow defence for uint8 */
 468:Generated_Source\PSoC5/CapSense_CSD_CSHL.c ****             if (tempRaw > 0xFFu)
 469:Generated_Source\PSoC5/CapSense_CSD_CSHL.c ****             {
 470:Generated_Source\PSoC5/CapSense_CSD_CSHL.c ****                 CapSense_CSD_sensorSignal[sensor] = 0xFFu;
ARM GAS  C:\Users\holge\AppData\Local\Temp\ccfhesHk.s 			page 18


 471:Generated_Source\PSoC5/CapSense_CSD_CSHL.c ****             }    
 472:Generated_Source\PSoC5/CapSense_CSD_CSHL.c ****             else 
 473:Generated_Source\PSoC5/CapSense_CSD_CSHL.c ****             {
 474:Generated_Source\PSoC5/CapSense_CSD_CSHL.c ****                 CapSense_CSD_sensorSignal[sensor] = ((uint8) tempRaw);
 475:Generated_Source\PSoC5/CapSense_CSD_CSHL.c ****             }
 476:Generated_Source\PSoC5/CapSense_CSD_CSHL.c ****         #else
 477:Generated_Source\PSoC5/CapSense_CSD_CSHL.c ****             CapSense_CSD_sensorSignal[sensor] = ((uint16) tempRaw);
 494              		.loc 1 477 0 is_stmt 1
 495 0100 FB79     		ldrb	r3, [r7, #7]	@ zero_extendqisi2
 496 0102 0C49     		ldr	r1, .L26+20
 497 0104 FA8A     		ldrh	r2, [r7, #22]	@ movhi
 498 0106 21F81320 		strh	r2, [r1, r3, lsl #1]	@ movhi
 499 010a 04E0     		b	.L25
 500              	.L24:
 478:Generated_Source\PSoC5/CapSense_CSD_CSHL.c ****         #endif  /* (CapSense_CSD_SIGNAL_SIZE == CapSense_CSD_SIGNAL_SIZE_UINT8) */
 479:Generated_Source\PSoC5/CapSense_CSD_CSHL.c ****     }
 480:Generated_Source\PSoC5/CapSense_CSD_CSHL.c ****     else
 481:Generated_Source\PSoC5/CapSense_CSD_CSHL.c ****     {
 482:Generated_Source\PSoC5/CapSense_CSD_CSHL.c ****         /* Signal is zero */
 483:Generated_Source\PSoC5/CapSense_CSD_CSHL.c ****         CapSense_CSD_sensorSignal[sensor] = 0u;
 501              		.loc 1 483 0
 502 010c FB79     		ldrb	r3, [r7, #7]	@ zero_extendqisi2
 503 010e 094A     		ldr	r2, .L26+20
 504 0110 0021     		movs	r1, #0
 505 0112 22F81310 		strh	r1, [r2, r3, lsl #1]	@ movhi
 506              	.L25:
 484:Generated_Source\PSoC5/CapSense_CSD_CSHL.c ****     }
 485:Generated_Source\PSoC5/CapSense_CSD_CSHL.c **** 
 486:Generated_Source\PSoC5/CapSense_CSD_CSHL.c ****     #if (CapSense_CSD_TOTAL_GENERICS_COUNT)
 487:Generated_Source\PSoC5/CapSense_CSD_CSHL.c ****         /* Exclude generic widget */
 488:Generated_Source\PSoC5/CapSense_CSD_CSHL.c ****         }
 489:Generated_Source\PSoC5/CapSense_CSD_CSHL.c ****     #endif  /* CapSense_CSD_TOTAL_GENERICS_COUNT */
 490:Generated_Source\PSoC5/CapSense_CSD_CSHL.c **** }
 507              		.loc 1 490 0
 508 0116 00BF     		nop
 509 0118 1837     		adds	r7, r7, #24
 510              		.cfi_def_cfa_offset 8
 511 011a BD46     		mov	sp, r7
 512              		.cfi_def_cfa_register 13
 513              		@ sp needed
 514 011c 80BD     		pop	{r7, pc}
 515              	.L27:
 516 011e 00BF     		.align	2
 517              	.L26:
 518 0120 00000000 		.word	CapSense_CSD_widgetNumber
 519 0124 00000000 		.word	CapSense_CSD_sensorRaw
 520 0128 00000000 		.word	CapSense_CSD_sensorBaseline
 521 012c 00000000 		.word	CapSense_CSD_lowBaselineResetCnt
 522 0130 00000000 		.word	CapSense_CSD_sensorBaselineLow
 523 0134 00000000 		.word	CapSense_CSD_sensorSignal
 524              		.cfi_endproc
 525              	.LFE4:
 526              		.size	CapSense_CSD_UpdateSensorBaseline, .-CapSense_CSD_UpdateSensorBaseline
 527              		.section	.text.CapSense_CSD_UpdateEnabledBaselines,"ax",%progbits
 528              		.align	2
 529              		.global	CapSense_CSD_UpdateEnabledBaselines
 530              		.thumb
ARM GAS  C:\Users\holge\AppData\Local\Temp\ccfhesHk.s 			page 19


 531              		.thumb_func
 532              		.type	CapSense_CSD_UpdateEnabledBaselines, %function
 533              	CapSense_CSD_UpdateEnabledBaselines:
 534              	.LFB5:
 491:Generated_Source\PSoC5/CapSense_CSD_CSHL.c **** 
 492:Generated_Source\PSoC5/CapSense_CSD_CSHL.c **** 
 493:Generated_Source\PSoC5/CapSense_CSD_CSHL.c **** /*******************************************************************************
 494:Generated_Source\PSoC5/CapSense_CSD_CSHL.c **** * Function Name: CapSense_CSD_UpdateEnabledBaselines
 495:Generated_Source\PSoC5/CapSense_CSD_CSHL.c **** ********************************************************************************
 496:Generated_Source\PSoC5/CapSense_CSD_CSHL.c **** *
 497:Generated_Source\PSoC5/CapSense_CSD_CSHL.c **** * Summary:
 498:Generated_Source\PSoC5/CapSense_CSD_CSHL.c **** *  Checks CapSense_CSD_sensorEnableMask[] array and calls the 
 499:Generated_Source\PSoC5/CapSense_CSD_CSHL.c **** *  CapSense_CSD_UpdateSensorBaseline function to update the baselines 
 500:Generated_Source\PSoC5/CapSense_CSD_CSHL.c **** *  for enabled sensors.
 501:Generated_Source\PSoC5/CapSense_CSD_CSHL.c **** *
 502:Generated_Source\PSoC5/CapSense_CSD_CSHL.c **** * Parameters:
 503:Generated_Source\PSoC5/CapSense_CSD_CSHL.c **** *  None
 504:Generated_Source\PSoC5/CapSense_CSD_CSHL.c **** *
 505:Generated_Source\PSoC5/CapSense_CSD_CSHL.c **** * Return:
 506:Generated_Source\PSoC5/CapSense_CSD_CSHL.c **** *  None
 507:Generated_Source\PSoC5/CapSense_CSD_CSHL.c **** *
 508:Generated_Source\PSoC5/CapSense_CSD_CSHL.c **** * Global Variables:
 509:Generated_Source\PSoC5/CapSense_CSD_CSHL.c **** *  CapSense_CSD_sensorEnableMask[] - used to store the sensor scanning 
 510:Generated_Source\PSoC5/CapSense_CSD_CSHL.c **** *  state.
 511:Generated_Source\PSoC5/CapSense_CSD_CSHL.c **** *  CapSense_CSD_sensorEnableMask[0] contains the masked bits for sensors 
 512:Generated_Source\PSoC5/CapSense_CSD_CSHL.c **** *   0 through 7 (sensor 0 is bit 0, sensor 1 is bit 1).
 513:Generated_Source\PSoC5/CapSense_CSD_CSHL.c **** *  CapSense_CSD_sensorEnableMask[1] contains the masked bits for 
 514:Generated_Source\PSoC5/CapSense_CSD_CSHL.c **** *  sensors 8 through 15 (if needed), and so on.
 515:Generated_Source\PSoC5/CapSense_CSD_CSHL.c **** *  0 - sensor doesn't scan by CapSense_CSD_ScanEnabledWidgets().
 516:Generated_Source\PSoC5/CapSense_CSD_CSHL.c **** *  1 - sensor scans by CapSense_CSD_ScanEnabledWidgets().
 517:Generated_Source\PSoC5/CapSense_CSD_CSHL.c **** *
 518:Generated_Source\PSoC5/CapSense_CSD_CSHL.c **** * Reentrant:
 519:Generated_Source\PSoC5/CapSense_CSD_CSHL.c **** *  No
 520:Generated_Source\PSoC5/CapSense_CSD_CSHL.c **** *
 521:Generated_Source\PSoC5/CapSense_CSD_CSHL.c **** *******************************************************************************/
 522:Generated_Source\PSoC5/CapSense_CSD_CSHL.c ****  void CapSense_CSD_UpdateEnabledBaselines(void)
 523:Generated_Source\PSoC5/CapSense_CSD_CSHL.c ****                                  
 524:Generated_Source\PSoC5/CapSense_CSD_CSHL.c **** {
 535              		.loc 1 524 0
 536              		.cfi_startproc
 537              		@ args = 0, pretend = 0, frame = 8
 538              		@ frame_needed = 1, uses_anonymous_args = 0
 539 0000 80B5     		push	{r7, lr}
 540              		.cfi_def_cfa_offset 8
 541              		.cfi_offset 7, -8
 542              		.cfi_offset 14, -4
 543 0002 82B0     		sub	sp, sp, #8
 544              		.cfi_def_cfa_offset 16
 545 0004 00AF     		add	r7, sp, #0
 546              		.cfi_def_cfa_register 7
 525:Generated_Source\PSoC5/CapSense_CSD_CSHL.c ****     uint8 i;
 526:Generated_Source\PSoC5/CapSense_CSD_CSHL.c ****     uint8 pos;
 527:Generated_Source\PSoC5/CapSense_CSD_CSHL.c ****     uint8 enMask;
 528:Generated_Source\PSoC5/CapSense_CSD_CSHL.c ****     
 529:Generated_Source\PSoC5/CapSense_CSD_CSHL.c ****     for(i = 0u; i < CapSense_CSD_TOTAL_SENSOR_COUNT; i++)
 547              		.loc 1 529 0
 548 0006 0023     		movs	r3, #0
ARM GAS  C:\Users\holge\AppData\Local\Temp\ccfhesHk.s 			page 20


 549 0008 FB71     		strb	r3, [r7, #7]
 550 000a 18E0     		b	.L29
 551              	.L31:
 530:Generated_Source\PSoC5/CapSense_CSD_CSHL.c ****     {
 531:Generated_Source\PSoC5/CapSense_CSD_CSHL.c ****         pos = (i >> 3u);
 552              		.loc 1 531 0
 553 000c FB79     		ldrb	r3, [r7, #7]	@ zero_extendqisi2
 554 000e DB08     		lsrs	r3, r3, #3
 555 0010 BB71     		strb	r3, [r7, #6]
 532:Generated_Source\PSoC5/CapSense_CSD_CSHL.c ****         enMask = (uint8)(0x01u << (i & 0x07u));
 556              		.loc 1 532 0
 557 0012 FB79     		ldrb	r3, [r7, #7]	@ zero_extendqisi2
 558 0014 03F00703 		and	r3, r3, #7
 559 0018 0122     		movs	r2, #1
 560 001a 02FA03F3 		lsl	r3, r2, r3
 561 001e 7B71     		strb	r3, [r7, #5]
 533:Generated_Source\PSoC5/CapSense_CSD_CSHL.c ****         if((CapSense_CSD_sensorEnableMask[pos] & enMask) != 0u)
 562              		.loc 1 533 0
 563 0020 BB79     		ldrb	r3, [r7, #6]	@ zero_extendqisi2
 564 0022 0A4A     		ldr	r2, .L32
 565 0024 D25C     		ldrb	r2, [r2, r3]	@ zero_extendqisi2
 566 0026 7B79     		ldrb	r3, [r7, #5]
 567 0028 1340     		ands	r3, r3, r2
 568 002a DBB2     		uxtb	r3, r3
 569 002c 002B     		cmp	r3, #0
 570 002e 03D0     		beq	.L30
 534:Generated_Source\PSoC5/CapSense_CSD_CSHL.c ****         {
 535:Generated_Source\PSoC5/CapSense_CSD_CSHL.c ****             CapSense_CSD_UpdateSensorBaseline(i);
 571              		.loc 1 535 0
 572 0030 FB79     		ldrb	r3, [r7, #7]	@ zero_extendqisi2
 573 0032 1846     		mov	r0, r3
 574 0034 FFF7FEFF 		bl	CapSense_CSD_UpdateSensorBaseline
 575              	.L30:
 529:Generated_Source\PSoC5/CapSense_CSD_CSHL.c ****     {
 576              		.loc 1 529 0 discriminator 2
 577 0038 FB79     		ldrb	r3, [r7, #7]	@ zero_extendqisi2
 578 003a 0133     		adds	r3, r3, #1
 579 003c FB71     		strb	r3, [r7, #7]
 580              	.L29:
 529:Generated_Source\PSoC5/CapSense_CSD_CSHL.c ****     {
 581              		.loc 1 529 0 is_stmt 0 discriminator 1
 582 003e FB79     		ldrb	r3, [r7, #7]	@ zero_extendqisi2
 583 0040 042B     		cmp	r3, #4
 584 0042 E3D9     		bls	.L31
 536:Generated_Source\PSoC5/CapSense_CSD_CSHL.c ****         }
 537:Generated_Source\PSoC5/CapSense_CSD_CSHL.c ****     }
 538:Generated_Source\PSoC5/CapSense_CSD_CSHL.c **** }
 585              		.loc 1 538 0 is_stmt 1
 586 0044 00BF     		nop
 587 0046 0837     		adds	r7, r7, #8
 588              		.cfi_def_cfa_offset 8
 589 0048 BD46     		mov	sp, r7
 590              		.cfi_def_cfa_register 13
 591              		@ sp needed
 592 004a 80BD     		pop	{r7, pc}
 593              	.L33:
 594              		.align	2
ARM GAS  C:\Users\holge\AppData\Local\Temp\ccfhesHk.s 			page 21


 595              	.L32:
 596 004c 00000000 		.word	CapSense_CSD_sensorEnableMask
 597              		.cfi_endproc
 598              	.LFE5:
 599              		.size	CapSense_CSD_UpdateEnabledBaselines, .-CapSense_CSD_UpdateEnabledBaselines
 600              		.section	.text.CapSense_CSD_CheckIsSensorActive,"ax",%progbits
 601              		.align	2
 602              		.global	CapSense_CSD_CheckIsSensorActive
 603              		.thumb
 604              		.thumb_func
 605              		.type	CapSense_CSD_CheckIsSensorActive, %function
 606              	CapSense_CSD_CheckIsSensorActive:
 607              	.LFB6:
 539:Generated_Source\PSoC5/CapSense_CSD_CSHL.c **** 
 540:Generated_Source\PSoC5/CapSense_CSD_CSHL.c **** 
 541:Generated_Source\PSoC5/CapSense_CSD_CSHL.c **** /*******************************************************************************
 542:Generated_Source\PSoC5/CapSense_CSD_CSHL.c **** * Function Name: CapSense_CSD_CheckIsSensorActive
 543:Generated_Source\PSoC5/CapSense_CSD_CSHL.c **** ********************************************************************************
 544:Generated_Source\PSoC5/CapSense_CSD_CSHL.c **** *
 545:Generated_Source\PSoC5/CapSense_CSD_CSHL.c **** * Summary:
 546:Generated_Source\PSoC5/CapSense_CSD_CSHL.c **** *  Compares the CapSense_CSD_SensorSignal[sensor] array element to finger
 547:Generated_Source\PSoC5/CapSense_CSD_CSHL.c **** *  threshold of widget it belongs to. The hysteresis and debounce are taken into 
 548:Generated_Source\PSoC5/CapSense_CSD_CSHL.c **** *  account. The hysteresis is added or subtracted from the finger threshold 
 549:Generated_Source\PSoC5/CapSense_CSD_CSHL.c **** *  based on whether the sensor is currently active. 
 550:Generated_Source\PSoC5/CapSense_CSD_CSHL.c **** *  If the sensor is active, the threshold is lowered by the hysteresis amount.
 551:Generated_Source\PSoC5/CapSense_CSD_CSHL.c **** *  If the sensor is inactive, the threshold is raised by the hysteresis amount.
 552:Generated_Source\PSoC5/CapSense_CSD_CSHL.c **** *  The debounce counter added to the sensor active transition.
 553:Generated_Source\PSoC5/CapSense_CSD_CSHL.c **** *  This function updates CapSense_CSD_SensorOnMask[] array element.
 554:Generated_Source\PSoC5/CapSense_CSD_CSHL.c **** *
 555:Generated_Source\PSoC5/CapSense_CSD_CSHL.c **** * Parameters:
 556:Generated_Source\PSoC5/CapSense_CSD_CSHL.c **** *  sensor:  Sensor number.
 557:Generated_Source\PSoC5/CapSense_CSD_CSHL.c **** *
 558:Generated_Source\PSoC5/CapSense_CSD_CSHL.c **** * Return:
 559:Generated_Source\PSoC5/CapSense_CSD_CSHL.c **** *  Returns sensor state 1 if active, 0 if not active.
 560:Generated_Source\PSoC5/CapSense_CSD_CSHL.c **** *
 561:Generated_Source\PSoC5/CapSense_CSD_CSHL.c **** * Global Variables:
 562:Generated_Source\PSoC5/CapSense_CSD_CSHL.c **** *  CapSense_CSD_sensorSignal[]      - used to store diffence between 
 563:Generated_Source\PSoC5/CapSense_CSD_CSHL.c **** *  current value of raw data and previous value of baseline.
 564:Generated_Source\PSoC5/CapSense_CSD_CSHL.c **** *  CapSense_CSD_debounceCounter[]   - used to store current debounce 
 565:Generated_Source\PSoC5/CapSense_CSD_CSHL.c **** *  counter of sensor. Widget which has this parameter are buttons, matrix 
 566:Generated_Source\PSoC5/CapSense_CSD_CSHL.c **** *  buttons, proximity, guard. All other widgets haven't debounce parameter
 567:Generated_Source\PSoC5/CapSense_CSD_CSHL.c **** *  and use the last element of this array with value 0 (it means no debounce).
 568:Generated_Source\PSoC5/CapSense_CSD_CSHL.c **** *  CapSense_CSD_sensorOnMask[] - used to store sensors on/off state.
 569:Generated_Source\PSoC5/CapSense_CSD_CSHL.c **** *  CapSense_CSD_sensorOnMask[0] contains the masked bits for sensors 
 570:Generated_Source\PSoC5/CapSense_CSD_CSHL.c **** *   0 through 7 (sensor 0 is bit 0, sensor 1 is bit 1).
 571:Generated_Source\PSoC5/CapSense_CSD_CSHL.c **** *  CapSense_CSD_sensorEnableMask[1] contains the masked bits for 
 572:Generated_Source\PSoC5/CapSense_CSD_CSHL.c **** *  sensors 8 through 15 (if needed), and so on.
 573:Generated_Source\PSoC5/CapSense_CSD_CSHL.c **** *  0 - sensor is inactive.
 574:Generated_Source\PSoC5/CapSense_CSD_CSHL.c **** *  1 - sensor is active.
 575:Generated_Source\PSoC5/CapSense_CSD_CSHL.c **** *
 576:Generated_Source\PSoC5/CapSense_CSD_CSHL.c **** * Reentrant:
 577:Generated_Source\PSoC5/CapSense_CSD_CSHL.c **** *  No
 578:Generated_Source\PSoC5/CapSense_CSD_CSHL.c **** *
 579:Generated_Source\PSoC5/CapSense_CSD_CSHL.c **** *******************************************************************************/
 580:Generated_Source\PSoC5/CapSense_CSD_CSHL.c **** uint8 CapSense_CSD_CheckIsSensorActive(uint8 sensor)
 581:Generated_Source\PSoC5/CapSense_CSD_CSHL.c ****                                   
 582:Generated_Source\PSoC5/CapSense_CSD_CSHL.c **** {
ARM GAS  C:\Users\holge\AppData\Local\Temp\ccfhesHk.s 			page 22


 608              		.loc 1 582 0
 609              		.cfi_startproc
 610              		@ args = 0, pretend = 0, frame = 24
 611              		@ frame_needed = 1, uses_anonymous_args = 0
 612              		@ link register save eliminated.
 613 0000 80B4     		push	{r7}
 614              		.cfi_def_cfa_offset 4
 615              		.cfi_offset 7, -4
 616 0002 87B0     		sub	sp, sp, #28
 617              		.cfi_def_cfa_offset 32
 618 0004 00AF     		add	r7, sp, #0
 619              		.cfi_def_cfa_register 7
 620 0006 0346     		mov	r3, r0
 621 0008 FB71     		strb	r3, [r7, #7]
 583:Generated_Source\PSoC5/CapSense_CSD_CSHL.c ****     uint8 debounceIndex;
 584:Generated_Source\PSoC5/CapSense_CSD_CSHL.c ****     /* Get On/Off mask */
 585:Generated_Source\PSoC5/CapSense_CSD_CSHL.c ****     uint8 pos = (sensor >> 3u);
 622              		.loc 1 585 0
 623 000a FB79     		ldrb	r3, [r7, #7]	@ zero_extendqisi2
 624 000c DB08     		lsrs	r3, r3, #3
 625 000e FB75     		strb	r3, [r7, #23]
 586:Generated_Source\PSoC5/CapSense_CSD_CSHL.c ****     uint8 onMask = 0x01u << (sensor & 0x07u);
 626              		.loc 1 586 0
 627 0010 FB79     		ldrb	r3, [r7, #7]	@ zero_extendqisi2
 628 0012 03F00703 		and	r3, r3, #7
 629 0016 0122     		movs	r2, #1
 630 0018 02FA03F3 		lsl	r3, r2, r3
 631 001c BB75     		strb	r3, [r7, #22]
 587:Generated_Source\PSoC5/CapSense_CSD_CSHL.c ****     /* Prepare to find debounce counter index */
 588:Generated_Source\PSoC5/CapSense_CSD_CSHL.c ****     uint8 widget = CapSense_CSD_widgetNumber[sensor];
 632              		.loc 1 588 0
 633 001e FB79     		ldrb	r3, [r7, #7]	@ zero_extendqisi2
 634 0020 324A     		ldr	r2, .L43
 635 0022 D35C     		ldrb	r3, [r2, r3]
 636 0024 7B75     		strb	r3, [r7, #21]
 589:Generated_Source\PSoC5/CapSense_CSD_CSHL.c ****     uint16 fingerThreshold = CapSense_CSD_fingerThreshold[widget];
 637              		.loc 1 589 0
 638 0026 5423     		movs	r3, #84
 639 0028 7B82     		strh	r3, [r7, #18]	@ movhi
 590:Generated_Source\PSoC5/CapSense_CSD_CSHL.c ****     uint16 hysteresis = CapSense_CSD_hysteresis[widget];
 640              		.loc 1 590 0
 641 002a 0023     		movs	r3, #0
 642 002c 3B82     		strh	r3, [r7, #16]	@ movhi
 591:Generated_Source\PSoC5/CapSense_CSD_CSHL.c ****     uint8 debounce = CapSense_CSD_debounce[widget];
 643              		.loc 1 591 0
 644 002e 0123     		movs	r3, #1
 645 0030 FB73     		strb	r3, [r7, #15]
 592:Generated_Source\PSoC5/CapSense_CSD_CSHL.c ****     
 593:Generated_Source\PSoC5/CapSense_CSD_CSHL.c ****     debounceIndex = CapSense_CSD_UNUSED_DEBOUNCE_COUNTER_INDEX;
 646              		.loc 1 593 0
 647 0032 0023     		movs	r3, #0
 648 0034 BB73     		strb	r3, [r7, #14]
 594:Generated_Source\PSoC5/CapSense_CSD_CSHL.c ****     CapSense_CSD_debounceCounter[debounceIndex] = 1u;
 649              		.loc 1 594 0
 650 0036 BB7B     		ldrb	r3, [r7, #14]	@ zero_extendqisi2
 651 0038 2D4A     		ldr	r2, .L43+4
 652 003a 0121     		movs	r1, #1
ARM GAS  C:\Users\holge\AppData\Local\Temp\ccfhesHk.s 			page 23


 653 003c D154     		strb	r1, [r2, r3]
 595:Generated_Source\PSoC5/CapSense_CSD_CSHL.c **** 
 596:Generated_Source\PSoC5/CapSense_CSD_CSHL.c ****     
 597:Generated_Source\PSoC5/CapSense_CSD_CSHL.c ****     /* Was on */
 598:Generated_Source\PSoC5/CapSense_CSD_CSHL.c ****     if (0u != (CapSense_CSD_sensorOnMask[pos] & onMask))
 654              		.loc 1 598 0
 655 003e FB7D     		ldrb	r3, [r7, #23]	@ zero_extendqisi2
 656 0040 2C4A     		ldr	r2, .L43+8
 657 0042 D25C     		ldrb	r2, [r2, r3]	@ zero_extendqisi2
 658 0044 BB7D     		ldrb	r3, [r7, #22]
 659 0046 1340     		ands	r3, r3, r2
 660 0048 DBB2     		uxtb	r3, r3
 661 004a 002B     		cmp	r3, #0
 662 004c 19D0     		beq	.L35
 599:Generated_Source\PSoC5/CapSense_CSD_CSHL.c ****     {
 600:Generated_Source\PSoC5/CapSense_CSD_CSHL.c ****         /* Hysteresis minus */
 601:Generated_Source\PSoC5/CapSense_CSD_CSHL.c ****         if (CapSense_CSD_sensorSignal[sensor] < (fingerThreshold - hysteresis))
 663              		.loc 1 601 0
 664 004e FB79     		ldrb	r3, [r7, #7]	@ zero_extendqisi2
 665 0050 294A     		ldr	r2, .L43+12
 666 0052 32F81330 		ldrh	r3, [r2, r3, lsl #1]
 667 0056 1946     		mov	r1, r3
 668 0058 7A8A     		ldrh	r2, [r7, #18]
 669 005a 3B8A     		ldrh	r3, [r7, #16]
 670 005c D31A     		subs	r3, r2, r3
 671 005e 9942     		cmp	r1, r3
 672 0060 33DA     		bge	.L37
 602:Generated_Source\PSoC5/CapSense_CSD_CSHL.c ****         {
 603:Generated_Source\PSoC5/CapSense_CSD_CSHL.c ****             CapSense_CSD_sensorOnMask[pos] &= (uint8)~onMask;
 673              		.loc 1 603 0
 674 0062 FB7D     		ldrb	r3, [r7, #23]	@ zero_extendqisi2
 675 0064 FA7D     		ldrb	r2, [r7, #23]	@ zero_extendqisi2
 676 0066 2349     		ldr	r1, .L43+8
 677 0068 895C     		ldrb	r1, [r1, r2]	@ zero_extendqisi2
 678 006a BA7D     		ldrb	r2, [r7, #22]
 679 006c D243     		mvns	r2, r2
 680 006e D2B2     		uxtb	r2, r2
 681 0070 0A40     		ands	r2, r2, r1
 682 0072 D1B2     		uxtb	r1, r2
 683 0074 1F4A     		ldr	r2, .L43+8
 684 0076 D154     		strb	r1, [r2, r3]
 604:Generated_Source\PSoC5/CapSense_CSD_CSHL.c ****             CapSense_CSD_debounceCounter[debounceIndex] = debounce; 
 685              		.loc 1 604 0
 686 0078 BB7B     		ldrb	r3, [r7, #14]	@ zero_extendqisi2
 687 007a 1D49     		ldr	r1, .L43+4
 688 007c FA7B     		ldrb	r2, [r7, #15]
 689 007e CA54     		strb	r2, [r1, r3]
 690 0080 23E0     		b	.L37
 691              	.L35:
 605:Generated_Source\PSoC5/CapSense_CSD_CSHL.c ****         }
 606:Generated_Source\PSoC5/CapSense_CSD_CSHL.c ****     }
 607:Generated_Source\PSoC5/CapSense_CSD_CSHL.c ****     else    /* Was off */
 608:Generated_Source\PSoC5/CapSense_CSD_CSHL.c ****     {
 609:Generated_Source\PSoC5/CapSense_CSD_CSHL.c ****         /* Hysteresis plus */
 610:Generated_Source\PSoC5/CapSense_CSD_CSHL.c ****         if (CapSense_CSD_sensorSignal[sensor] > (fingerThreshold + hysteresis))
 692              		.loc 1 610 0
 693 0082 FB79     		ldrb	r3, [r7, #7]	@ zero_extendqisi2
ARM GAS  C:\Users\holge\AppData\Local\Temp\ccfhesHk.s 			page 24


 694 0084 1C4A     		ldr	r2, .L43+12
 695 0086 32F81330 		ldrh	r3, [r2, r3, lsl #1]
 696 008a 1946     		mov	r1, r3
 697 008c 7A8A     		ldrh	r2, [r7, #18]
 698 008e 3B8A     		ldrh	r3, [r7, #16]
 699 0090 1344     		add	r3, r3, r2
 700 0092 9942     		cmp	r1, r3
 701 0094 15DD     		ble	.L38
 611:Generated_Source\PSoC5/CapSense_CSD_CSHL.c ****         {
 612:Generated_Source\PSoC5/CapSense_CSD_CSHL.c ****             /* Sensor active, decrement debounce counter */
 613:Generated_Source\PSoC5/CapSense_CSD_CSHL.c ****             if (CapSense_CSD_debounceCounter[debounceIndex] <= 1u)
 702              		.loc 1 613 0
 703 0096 BB7B     		ldrb	r3, [r7, #14]	@ zero_extendqisi2
 704 0098 154A     		ldr	r2, .L43+4
 705 009a D35C     		ldrb	r3, [r2, r3]	@ zero_extendqisi2
 706 009c 012B     		cmp	r3, #1
 707 009e 08D8     		bhi	.L39
 614:Generated_Source\PSoC5/CapSense_CSD_CSHL.c ****             {
 615:Generated_Source\PSoC5/CapSense_CSD_CSHL.c ****                 CapSense_CSD_sensorOnMask[pos] |= onMask; 
 708              		.loc 1 615 0
 709 00a0 FB7D     		ldrb	r3, [r7, #23]	@ zero_extendqisi2
 710 00a2 FA7D     		ldrb	r2, [r7, #23]	@ zero_extendqisi2
 711 00a4 1349     		ldr	r1, .L43+8
 712 00a6 895C     		ldrb	r1, [r1, r2]	@ zero_extendqisi2
 713 00a8 BA7D     		ldrb	r2, [r7, #22]
 714 00aa 0A43     		orrs	r2, r2, r1
 715 00ac D1B2     		uxtb	r1, r2
 716 00ae 114A     		ldr	r2, .L43+8
 717 00b0 D154     		strb	r1, [r2, r3]
 718              	.L39:
 616:Generated_Source\PSoC5/CapSense_CSD_CSHL.c ****             }
 617:Generated_Source\PSoC5/CapSense_CSD_CSHL.c ****             CapSense_CSD_debounceCounter[debounceIndex]--;
 719              		.loc 1 617 0
 720 00b2 BB7B     		ldrb	r3, [r7, #14]	@ zero_extendqisi2
 721 00b4 0E4A     		ldr	r2, .L43+4
 722 00b6 D25C     		ldrb	r2, [r2, r3]	@ zero_extendqisi2
 723 00b8 013A     		subs	r2, r2, #1
 724 00ba D1B2     		uxtb	r1, r2
 725 00bc 0C4A     		ldr	r2, .L43+4
 726 00be D154     		strb	r1, [r2, r3]
 727 00c0 03E0     		b	.L37
 728              	.L38:
 618:Generated_Source\PSoC5/CapSense_CSD_CSHL.c ****         }
 619:Generated_Source\PSoC5/CapSense_CSD_CSHL.c ****         else
 620:Generated_Source\PSoC5/CapSense_CSD_CSHL.c ****         {
 621:Generated_Source\PSoC5/CapSense_CSD_CSHL.c ****             /* Sensor inactive - reset Debounce counter */
 622:Generated_Source\PSoC5/CapSense_CSD_CSHL.c ****             CapSense_CSD_debounceCounter[debounceIndex] = debounce;
 729              		.loc 1 622 0
 730 00c2 BB7B     		ldrb	r3, [r7, #14]	@ zero_extendqisi2
 731 00c4 0A49     		ldr	r1, .L43+4
 732 00c6 FA7B     		ldrb	r2, [r7, #15]
 733 00c8 CA54     		strb	r2, [r1, r3]
 734              	.L37:
 623:Generated_Source\PSoC5/CapSense_CSD_CSHL.c ****         }
 624:Generated_Source\PSoC5/CapSense_CSD_CSHL.c ****     }
 625:Generated_Source\PSoC5/CapSense_CSD_CSHL.c ****     
 626:Generated_Source\PSoC5/CapSense_CSD_CSHL.c ****     return (((CapSense_CSD_sensorOnMask[pos] & onMask) != 0u) ? 1u : 0u);
ARM GAS  C:\Users\holge\AppData\Local\Temp\ccfhesHk.s 			page 25


 735              		.loc 1 626 0
 736 00ca FB7D     		ldrb	r3, [r7, #23]	@ zero_extendqisi2
 737 00cc 094A     		ldr	r2, .L43+8
 738 00ce D25C     		ldrb	r2, [r2, r3]	@ zero_extendqisi2
 739 00d0 BB7D     		ldrb	r3, [r7, #22]
 740 00d2 1340     		ands	r3, r3, r2
 741 00d4 DBB2     		uxtb	r3, r3
 742 00d6 002B     		cmp	r3, #0
 743 00d8 01D0     		beq	.L40
 744              		.loc 1 626 0 is_stmt 0 discriminator 1
 745 00da 0123     		movs	r3, #1
 746 00dc 00E0     		b	.L41
 747              	.L40:
 748              		.loc 1 626 0 discriminator 2
 749 00de 0023     		movs	r3, #0
 750              	.L41:
 627:Generated_Source\PSoC5/CapSense_CSD_CSHL.c **** }
 751              		.loc 1 627 0 is_stmt 1 discriminator 4
 752 00e0 1846     		mov	r0, r3
 753 00e2 1C37     		adds	r7, r7, #28
 754              		.cfi_def_cfa_offset 4
 755 00e4 BD46     		mov	sp, r7
 756              		.cfi_def_cfa_register 13
 757              		@ sp needed
 758 00e6 80BC     		pop	{r7}
 759              		.cfi_restore 7
 760              		.cfi_def_cfa_offset 0
 761 00e8 7047     		bx	lr
 762              	.L44:
 763 00ea 00BF     		.align	2
 764              	.L43:
 765 00ec 00000000 		.word	CapSense_CSD_widgetNumber
 766 00f0 00000000 		.word	CapSense_CSD_debounceCounter
 767 00f4 00000000 		.word	CapSense_CSD_sensorOnMask
 768 00f8 00000000 		.word	CapSense_CSD_sensorSignal
 769              		.cfi_endproc
 770              	.LFE6:
 771              		.size	CapSense_CSD_CheckIsSensorActive, .-CapSense_CSD_CheckIsSensorActive
 772              		.section	.text.CapSense_CSD_CheckIsWidgetActive,"ax",%progbits
 773              		.align	2
 774              		.global	CapSense_CSD_CheckIsWidgetActive
 775              		.thumb
 776              		.thumb_func
 777              		.type	CapSense_CSD_CheckIsWidgetActive, %function
 778              	CapSense_CSD_CheckIsWidgetActive:
 779              	.LFB7:
 628:Generated_Source\PSoC5/CapSense_CSD_CSHL.c **** 
 629:Generated_Source\PSoC5/CapSense_CSD_CSHL.c **** 
 630:Generated_Source\PSoC5/CapSense_CSD_CSHL.c **** /*******************************************************************************
 631:Generated_Source\PSoC5/CapSense_CSD_CSHL.c **** * Function Name: CapSense_CSD_CheckIsWidgetActive
 632:Generated_Source\PSoC5/CapSense_CSD_CSHL.c **** ********************************************************************************
 633:Generated_Source\PSoC5/CapSense_CSD_CSHL.c **** *
 634:Generated_Source\PSoC5/CapSense_CSD_CSHL.c **** * Summary:
 635:Generated_Source\PSoC5/CapSense_CSD_CSHL.c **** *  Use function CapSense_CSD_CheckIsSensorActive() to update 
 636:Generated_Source\PSoC5/CapSense_CSD_CSHL.c **** *  CapSense_CSD_sensorOnMask[] for all sensors within the widget.
 637:Generated_Source\PSoC5/CapSense_CSD_CSHL.c **** *  If one of sensors within widget is active the function return that widget is 
 638:Generated_Source\PSoC5/CapSense_CSD_CSHL.c **** *  active.
ARM GAS  C:\Users\holge\AppData\Local\Temp\ccfhesHk.s 			page 26


 639:Generated_Source\PSoC5/CapSense_CSD_CSHL.c **** *  The touch pad and matrix buttons widgets need to have active sensor within 
 640:Generated_Source\PSoC5/CapSense_CSD_CSHL.c **** *  col and row to return widget active status.
 641:Generated_Source\PSoC5/CapSense_CSD_CSHL.c **** *
 642:Generated_Source\PSoC5/CapSense_CSD_CSHL.c **** * Parameters:
 643:Generated_Source\PSoC5/CapSense_CSD_CSHL.c **** *  widget:  widget number.
 644:Generated_Source\PSoC5/CapSense_CSD_CSHL.c **** *
 645:Generated_Source\PSoC5/CapSense_CSD_CSHL.c **** * Return:
 646:Generated_Source\PSoC5/CapSense_CSD_CSHL.c **** *  Returns widget sensor state 1 if one or more sensors within widget is/are 
 647:Generated_Source\PSoC5/CapSense_CSD_CSHL.c **** *  active, 0 if all sensors within widget are inactive.
 648:Generated_Source\PSoC5/CapSense_CSD_CSHL.c **** *
 649:Generated_Source\PSoC5/CapSense_CSD_CSHL.c **** * Reentrant:
 650:Generated_Source\PSoC5/CapSense_CSD_CSHL.c **** *  No
 651:Generated_Source\PSoC5/CapSense_CSD_CSHL.c **** *
 652:Generated_Source\PSoC5/CapSense_CSD_CSHL.c **** *******************************************************************************/
 653:Generated_Source\PSoC5/CapSense_CSD_CSHL.c **** uint8 CapSense_CSD_CheckIsWidgetActive(uint8 widget)
 654:Generated_Source\PSoC5/CapSense_CSD_CSHL.c ****                                  
 655:Generated_Source\PSoC5/CapSense_CSD_CSHL.c **** {
 780              		.loc 1 655 0
 781              		.cfi_startproc
 782              		@ args = 0, pretend = 0, frame = 16
 783              		@ frame_needed = 1, uses_anonymous_args = 0
 784 0000 80B5     		push	{r7, lr}
 785              		.cfi_def_cfa_offset 8
 786              		.cfi_offset 7, -8
 787              		.cfi_offset 14, -4
 788 0002 84B0     		sub	sp, sp, #16
 789              		.cfi_def_cfa_offset 24
 790 0004 00AF     		add	r7, sp, #0
 791              		.cfi_def_cfa_register 7
 792 0006 0346     		mov	r3, r0
 793 0008 FB71     		strb	r3, [r7, #7]
 656:Generated_Source\PSoC5/CapSense_CSD_CSHL.c ****     uint8 rawIndex = CapSense_CSD_rawDataIndex[widget];
 794              		.loc 1 656 0
 795 000a 0023     		movs	r3, #0
 796 000c FB73     		strb	r3, [r7, #15]
 657:Generated_Source\PSoC5/CapSense_CSD_CSHL.c ****     uint8 numberOfSensors = CapSense_CSD_numberOfSensors[widget] + rawIndex;
 797              		.loc 1 657 0
 798 000e 0522     		movs	r2, #5
 799 0010 FB7B     		ldrb	r3, [r7, #15]
 800 0012 1344     		add	r3, r3, r2
 801 0014 7B73     		strb	r3, [r7, #13]
 658:Generated_Source\PSoC5/CapSense_CSD_CSHL.c ****     uint8 state = 0u;
 802              		.loc 1 658 0
 803 0016 0023     		movs	r3, #0
 804 0018 BB73     		strb	r3, [r7, #14]
 805              	.L47:
 659:Generated_Source\PSoC5/CapSense_CSD_CSHL.c **** 
 660:Generated_Source\PSoC5/CapSense_CSD_CSHL.c ****     /* Check all sensors of the widget */
 661:Generated_Source\PSoC5/CapSense_CSD_CSHL.c ****     do
 662:Generated_Source\PSoC5/CapSense_CSD_CSHL.c ****     {
 663:Generated_Source\PSoC5/CapSense_CSD_CSHL.c ****         if(CapSense_CSD_CheckIsSensorActive(rawIndex) != 0u)
 806              		.loc 1 663 0
 807 001a FB7B     		ldrb	r3, [r7, #15]	@ zero_extendqisi2
 808 001c 1846     		mov	r0, r3
 809 001e FFF7FEFF 		bl	CapSense_CSD_CheckIsSensorActive
 810 0022 0346     		mov	r3, r0
 811 0024 002B     		cmp	r3, #0
ARM GAS  C:\Users\holge\AppData\Local\Temp\ccfhesHk.s 			page 27


 812 0026 01D0     		beq	.L46
 664:Generated_Source\PSoC5/CapSense_CSD_CSHL.c ****         {
 665:Generated_Source\PSoC5/CapSense_CSD_CSHL.c ****             state = CapSense_CSD_SENSOR_1_IS_ACTIVE;
 813              		.loc 1 665 0
 814 0028 0123     		movs	r3, #1
 815 002a BB73     		strb	r3, [r7, #14]
 816              	.L46:
 666:Generated_Source\PSoC5/CapSense_CSD_CSHL.c ****         }
 667:Generated_Source\PSoC5/CapSense_CSD_CSHL.c ****         rawIndex++;
 817              		.loc 1 667 0
 818 002c FB7B     		ldrb	r3, [r7, #15]	@ zero_extendqisi2
 819 002e 0133     		adds	r3, r3, #1
 820 0030 FB73     		strb	r3, [r7, #15]
 668:Generated_Source\PSoC5/CapSense_CSD_CSHL.c ****     }
 669:Generated_Source\PSoC5/CapSense_CSD_CSHL.c ****     while(rawIndex < numberOfSensors);
 821              		.loc 1 669 0
 822 0032 FA7B     		ldrb	r2, [r7, #15]	@ zero_extendqisi2
 823 0034 7B7B     		ldrb	r3, [r7, #13]	@ zero_extendqisi2
 824 0036 9A42     		cmp	r2, r3
 825 0038 EFD3     		bcc	.L47
 670:Generated_Source\PSoC5/CapSense_CSD_CSHL.c ****     
 671:Generated_Source\PSoC5/CapSense_CSD_CSHL.c **** 
 672:Generated_Source\PSoC5/CapSense_CSD_CSHL.c ****     
 673:Generated_Source\PSoC5/CapSense_CSD_CSHL.c ****     return (state);
 826              		.loc 1 673 0
 827 003a BB7B     		ldrb	r3, [r7, #14]	@ zero_extendqisi2
 674:Generated_Source\PSoC5/CapSense_CSD_CSHL.c **** }
 828              		.loc 1 674 0
 829 003c 1846     		mov	r0, r3
 830 003e 1037     		adds	r7, r7, #16
 831              		.cfi_def_cfa_offset 8
 832 0040 BD46     		mov	sp, r7
 833              		.cfi_def_cfa_register 13
 834              		@ sp needed
 835 0042 80BD     		pop	{r7, pc}
 836              		.cfi_endproc
 837              	.LFE7:
 838              		.size	CapSense_CSD_CheckIsWidgetActive, .-CapSense_CSD_CheckIsWidgetActive
 839              		.section	.text.CapSense_CSD_CheckIsAnyWidgetActive,"ax",%progbits
 840              		.align	2
 841              		.global	CapSense_CSD_CheckIsAnyWidgetActive
 842              		.thumb
 843              		.thumb_func
 844              		.type	CapSense_CSD_CheckIsAnyWidgetActive, %function
 845              	CapSense_CSD_CheckIsAnyWidgetActive:
 846              	.LFB8:
 675:Generated_Source\PSoC5/CapSense_CSD_CSHL.c **** 
 676:Generated_Source\PSoC5/CapSense_CSD_CSHL.c **** 
 677:Generated_Source\PSoC5/CapSense_CSD_CSHL.c **** /*******************************************************************************
 678:Generated_Source\PSoC5/CapSense_CSD_CSHL.c **** * Function Name: CapSense_CSD_CheckIsAnyWidgetActive
 679:Generated_Source\PSoC5/CapSense_CSD_CSHL.c **** ********************************************************************************
 680:Generated_Source\PSoC5/CapSense_CSD_CSHL.c **** *
 681:Generated_Source\PSoC5/CapSense_CSD_CSHL.c **** * Summary:
 682:Generated_Source\PSoC5/CapSense_CSD_CSHL.c **** *  Compares all sensors of the CapSense_CSD_signal[] array to their finger 
 683:Generated_Source\PSoC5/CapSense_CSD_CSHL.c **** *  threshold. Calls CapSense_CSD_CheckIsWidgetActive() for each widget so 
 684:Generated_Source\PSoC5/CapSense_CSD_CSHL.c **** *  the CapSense_CSD_SensorOnMask[] array is up to date after calling this 
 685:Generated_Source\PSoC5/CapSense_CSD_CSHL.c **** *  function.
ARM GAS  C:\Users\holge\AppData\Local\Temp\ccfhesHk.s 			page 28


 686:Generated_Source\PSoC5/CapSense_CSD_CSHL.c **** *
 687:Generated_Source\PSoC5/CapSense_CSD_CSHL.c **** * Parameters:
 688:Generated_Source\PSoC5/CapSense_CSD_CSHL.c **** *  widget:  widget number.
 689:Generated_Source\PSoC5/CapSense_CSD_CSHL.c **** *
 690:Generated_Source\PSoC5/CapSense_CSD_CSHL.c **** * Return:
 691:Generated_Source\PSoC5/CapSense_CSD_CSHL.c **** *  Returns 1 if any widget is active, 0 none of widgets are active.
 692:Generated_Source\PSoC5/CapSense_CSD_CSHL.c **** *
 693:Generated_Source\PSoC5/CapSense_CSD_CSHL.c **** * Reentrant:
 694:Generated_Source\PSoC5/CapSense_CSD_CSHL.c **** *  No
 695:Generated_Source\PSoC5/CapSense_CSD_CSHL.c **** *
 696:Generated_Source\PSoC5/CapSense_CSD_CSHL.c **** *******************************************************************************/
 697:Generated_Source\PSoC5/CapSense_CSD_CSHL.c **** uint8 CapSense_CSD_CheckIsAnyWidgetActive(void)
 698:Generated_Source\PSoC5/CapSense_CSD_CSHL.c ****                                  
 699:Generated_Source\PSoC5/CapSense_CSD_CSHL.c **** {
 847              		.loc 1 699 0
 848              		.cfi_startproc
 849              		@ args = 0, pretend = 0, frame = 8
 850              		@ frame_needed = 1, uses_anonymous_args = 0
 851 0000 80B5     		push	{r7, lr}
 852              		.cfi_def_cfa_offset 8
 853              		.cfi_offset 7, -8
 854              		.cfi_offset 14, -4
 855 0002 82B0     		sub	sp, sp, #8
 856              		.cfi_def_cfa_offset 16
 857 0004 00AF     		add	r7, sp, #0
 858              		.cfi_def_cfa_register 7
 700:Generated_Source\PSoC5/CapSense_CSD_CSHL.c ****     uint8 i;
 701:Generated_Source\PSoC5/CapSense_CSD_CSHL.c ****     uint8 state = 0u;
 859              		.loc 1 701 0
 860 0006 0023     		movs	r3, #0
 861 0008 BB71     		strb	r3, [r7, #6]
 702:Generated_Source\PSoC5/CapSense_CSD_CSHL.c ****     
 703:Generated_Source\PSoC5/CapSense_CSD_CSHL.c ****     for(i = 0u; i < CapSense_CSD_TOTAL_WIDGET_COUNT; i++)
 862              		.loc 1 703 0
 863 000a 0023     		movs	r3, #0
 864 000c FB71     		strb	r3, [r7, #7]
 865 000e 0BE0     		b	.L50
 866              	.L52:
 704:Generated_Source\PSoC5/CapSense_CSD_CSHL.c ****     {
 705:Generated_Source\PSoC5/CapSense_CSD_CSHL.c ****         if (CapSense_CSD_CheckIsWidgetActive(i) != 0u)
 867              		.loc 1 705 0
 868 0010 FB79     		ldrb	r3, [r7, #7]	@ zero_extendqisi2
 869 0012 1846     		mov	r0, r3
 870 0014 FFF7FEFF 		bl	CapSense_CSD_CheckIsWidgetActive
 871 0018 0346     		mov	r3, r0
 872 001a 002B     		cmp	r3, #0
 873 001c 01D0     		beq	.L51
 706:Generated_Source\PSoC5/CapSense_CSD_CSHL.c ****         {
 707:Generated_Source\PSoC5/CapSense_CSD_CSHL.c ****             state = CapSense_CSD_WIDGET_IS_ACTIVE;
 874              		.loc 1 707 0
 875 001e 0123     		movs	r3, #1
 876 0020 BB71     		strb	r3, [r7, #6]
 877              	.L51:
 703:Generated_Source\PSoC5/CapSense_CSD_CSHL.c ****     {
 878              		.loc 1 703 0 discriminator 2
 879 0022 FB79     		ldrb	r3, [r7, #7]	@ zero_extendqisi2
 880 0024 0133     		adds	r3, r3, #1
ARM GAS  C:\Users\holge\AppData\Local\Temp\ccfhesHk.s 			page 29


 881 0026 FB71     		strb	r3, [r7, #7]
 882              	.L50:
 703:Generated_Source\PSoC5/CapSense_CSD_CSHL.c ****     {
 883              		.loc 1 703 0 is_stmt 0 discriminator 1
 884 0028 FB79     		ldrb	r3, [r7, #7]	@ zero_extendqisi2
 885 002a 002B     		cmp	r3, #0
 886 002c F0D0     		beq	.L52
 708:Generated_Source\PSoC5/CapSense_CSD_CSHL.c ****         }
 709:Generated_Source\PSoC5/CapSense_CSD_CSHL.c ****     }
 710:Generated_Source\PSoC5/CapSense_CSD_CSHL.c ****     
 711:Generated_Source\PSoC5/CapSense_CSD_CSHL.c **** 
 712:Generated_Source\PSoC5/CapSense_CSD_CSHL.c ****     return (state);
 887              		.loc 1 712 0 is_stmt 1
 888 002e BB79     		ldrb	r3, [r7, #6]	@ zero_extendqisi2
 713:Generated_Source\PSoC5/CapSense_CSD_CSHL.c **** }
 889              		.loc 1 713 0
 890 0030 1846     		mov	r0, r3
 891 0032 0837     		adds	r7, r7, #8
 892              		.cfi_def_cfa_offset 8
 893 0034 BD46     		mov	sp, r7
 894              		.cfi_def_cfa_register 13
 895              		@ sp needed
 896 0036 80BD     		pop	{r7, pc}
 897              		.cfi_endproc
 898              	.LFE8:
 899              		.size	CapSense_CSD_CheckIsAnyWidgetActive, .-CapSense_CSD_CheckIsAnyWidgetActive
 900              		.section	.text.CapSense_CSD_EnableWidget,"ax",%progbits
 901              		.align	2
 902              		.global	CapSense_CSD_EnableWidget
 903              		.thumb
 904              		.thumb_func
 905              		.type	CapSense_CSD_EnableWidget, %function
 906              	CapSense_CSD_EnableWidget:
 907              	.LFB9:
 714:Generated_Source\PSoC5/CapSense_CSD_CSHL.c **** 
 715:Generated_Source\PSoC5/CapSense_CSD_CSHL.c **** 
 716:Generated_Source\PSoC5/CapSense_CSD_CSHL.c **** /*******************************************************************************
 717:Generated_Source\PSoC5/CapSense_CSD_CSHL.c **** * Function Name: CapSense_CSD_EnableWidget
 718:Generated_Source\PSoC5/CapSense_CSD_CSHL.c **** ********************************************************************************
 719:Generated_Source\PSoC5/CapSense_CSD_CSHL.c **** *
 720:Generated_Source\PSoC5/CapSense_CSD_CSHL.c **** * Summary:
 721:Generated_Source\PSoC5/CapSense_CSD_CSHL.c **** *  Enable all widget elements (sensors) to scanning process.
 722:Generated_Source\PSoC5/CapSense_CSD_CSHL.c **** *
 723:Generated_Source\PSoC5/CapSense_CSD_CSHL.c **** * Parameters:
 724:Generated_Source\PSoC5/CapSense_CSD_CSHL.c **** *  widget:  widget number.
 725:Generated_Source\PSoC5/CapSense_CSD_CSHL.c **** *
 726:Generated_Source\PSoC5/CapSense_CSD_CSHL.c **** * Return:
 727:Generated_Source\PSoC5/CapSense_CSD_CSHL.c **** *  None
 728:Generated_Source\PSoC5/CapSense_CSD_CSHL.c **** *
 729:Generated_Source\PSoC5/CapSense_CSD_CSHL.c **** * Global Variables:
 730:Generated_Source\PSoC5/CapSense_CSD_CSHL.c **** *  CapSense_CSD_sensorEnableMask[] - used to store the sensor scanning 
 731:Generated_Source\PSoC5/CapSense_CSD_CSHL.c **** *  state.
 732:Generated_Source\PSoC5/CapSense_CSD_CSHL.c **** *  CapSense_CSD_sensorEnableMask[0] contains the masked bits for sensors 
 733:Generated_Source\PSoC5/CapSense_CSD_CSHL.c **** *  0 through 7 (sensor 0 is bit 0, sensor 1 is bit 1).
 734:Generated_Source\PSoC5/CapSense_CSD_CSHL.c **** *  CapSense_CSD_sensorEnableMask[1] contains the masked bits for 
 735:Generated_Source\PSoC5/CapSense_CSD_CSHL.c **** *  sensors 8 through 15 (if needed), and so on.
 736:Generated_Source\PSoC5/CapSense_CSD_CSHL.c **** *  0 - sensor doesn't scan by CapSense_CSD_ScanEnabledWidgets().
ARM GAS  C:\Users\holge\AppData\Local\Temp\ccfhesHk.s 			page 30


 737:Generated_Source\PSoC5/CapSense_CSD_CSHL.c **** *  1 - sensor scans by CapSense_CSD_ScanEnabledWidgets().
 738:Generated_Source\PSoC5/CapSense_CSD_CSHL.c **** *
 739:Generated_Source\PSoC5/CapSense_CSD_CSHL.c **** * Reentrant:
 740:Generated_Source\PSoC5/CapSense_CSD_CSHL.c **** *  No
 741:Generated_Source\PSoC5/CapSense_CSD_CSHL.c **** *
 742:Generated_Source\PSoC5/CapSense_CSD_CSHL.c **** *******************************************************************************/
 743:Generated_Source\PSoC5/CapSense_CSD_CSHL.c **** void CapSense_CSD_EnableWidget(uint8 widget)
 744:Generated_Source\PSoC5/CapSense_CSD_CSHL.c ****                                    
 745:Generated_Source\PSoC5/CapSense_CSD_CSHL.c **** {
 908              		.loc 1 745 0
 909              		.cfi_startproc
 910              		@ args = 0, pretend = 0, frame = 16
 911              		@ frame_needed = 1, uses_anonymous_args = 0
 912              		@ link register save eliminated.
 913 0000 80B4     		push	{r7}
 914              		.cfi_def_cfa_offset 4
 915              		.cfi_offset 7, -4
 916 0002 85B0     		sub	sp, sp, #20
 917              		.cfi_def_cfa_offset 24
 918 0004 00AF     		add	r7, sp, #0
 919              		.cfi_def_cfa_register 7
 920 0006 0346     		mov	r3, r0
 921 0008 FB71     		strb	r3, [r7, #7]
 746:Generated_Source\PSoC5/CapSense_CSD_CSHL.c ****     uint8 pos;
 747:Generated_Source\PSoC5/CapSense_CSD_CSHL.c ****     uint8 enMask;
 748:Generated_Source\PSoC5/CapSense_CSD_CSHL.c ****     uint8 rawIndex = CapSense_CSD_rawDataIndex[widget];
 922              		.loc 1 748 0
 923 000a 0023     		movs	r3, #0
 924 000c FB73     		strb	r3, [r7, #15]
 749:Generated_Source\PSoC5/CapSense_CSD_CSHL.c ****     uint8 numberOfSensors = CapSense_CSD_numberOfSensors[widget] + rawIndex;
 925              		.loc 1 749 0
 926 000e 0522     		movs	r2, #5
 927 0010 FB7B     		ldrb	r3, [r7, #15]
 928 0012 1344     		add	r3, r3, r2
 929 0014 BB73     		strb	r3, [r7, #14]
 930              	.L55:
 750:Generated_Source\PSoC5/CapSense_CSD_CSHL.c ****     
 751:Generated_Source\PSoC5/CapSense_CSD_CSHL.c ****     /* Enable all sensors of the widget */
 752:Generated_Source\PSoC5/CapSense_CSD_CSHL.c ****     do
 753:Generated_Source\PSoC5/CapSense_CSD_CSHL.c ****     {
 754:Generated_Source\PSoC5/CapSense_CSD_CSHL.c ****         pos = (rawIndex >> 3u);
 931              		.loc 1 754 0 discriminator 1
 932 0016 FB7B     		ldrb	r3, [r7, #15]	@ zero_extendqisi2
 933 0018 DB08     		lsrs	r3, r3, #3
 934 001a 7B73     		strb	r3, [r7, #13]
 755:Generated_Source\PSoC5/CapSense_CSD_CSHL.c ****         enMask = 0x01u << (rawIndex & 0x07u);
 935              		.loc 1 755 0 discriminator 1
 936 001c FB7B     		ldrb	r3, [r7, #15]	@ zero_extendqisi2
 937 001e 03F00703 		and	r3, r3, #7
 938 0022 0122     		movs	r2, #1
 939 0024 02FA03F3 		lsl	r3, r2, r3
 940 0028 3B73     		strb	r3, [r7, #12]
 756:Generated_Source\PSoC5/CapSense_CSD_CSHL.c ****         
 757:Generated_Source\PSoC5/CapSense_CSD_CSHL.c ****         CapSense_CSD_sensorEnableMask[pos] |= enMask;
 941              		.loc 1 757 0 discriminator 1
 942 002a 7B7B     		ldrb	r3, [r7, #13]	@ zero_extendqisi2
 943 002c 7A7B     		ldrb	r2, [r7, #13]	@ zero_extendqisi2
ARM GAS  C:\Users\holge\AppData\Local\Temp\ccfhesHk.s 			page 31


 944 002e 0949     		ldr	r1, .L56
 945 0030 895C     		ldrb	r1, [r1, r2]	@ zero_extendqisi2
 946 0032 3A7B     		ldrb	r2, [r7, #12]
 947 0034 0A43     		orrs	r2, r2, r1
 948 0036 D1B2     		uxtb	r1, r2
 949 0038 064A     		ldr	r2, .L56
 950 003a D154     		strb	r1, [r2, r3]
 758:Generated_Source\PSoC5/CapSense_CSD_CSHL.c ****         rawIndex++;
 951              		.loc 1 758 0 discriminator 1
 952 003c FB7B     		ldrb	r3, [r7, #15]	@ zero_extendqisi2
 953 003e 0133     		adds	r3, r3, #1
 954 0040 FB73     		strb	r3, [r7, #15]
 759:Generated_Source\PSoC5/CapSense_CSD_CSHL.c ****     }
 760:Generated_Source\PSoC5/CapSense_CSD_CSHL.c ****     while(rawIndex < numberOfSensors);
 955              		.loc 1 760 0 discriminator 1
 956 0042 FA7B     		ldrb	r2, [r7, #15]	@ zero_extendqisi2
 957 0044 BB7B     		ldrb	r3, [r7, #14]	@ zero_extendqisi2
 958 0046 9A42     		cmp	r2, r3
 959 0048 E5D3     		bcc	.L55
 761:Generated_Source\PSoC5/CapSense_CSD_CSHL.c ****     
 762:Generated_Source\PSoC5/CapSense_CSD_CSHL.c **** 
 763:Generated_Source\PSoC5/CapSense_CSD_CSHL.c **** }
 960              		.loc 1 763 0
 961 004a 00BF     		nop
 962 004c 1437     		adds	r7, r7, #20
 963              		.cfi_def_cfa_offset 4
 964 004e BD46     		mov	sp, r7
 965              		.cfi_def_cfa_register 13
 966              		@ sp needed
 967 0050 80BC     		pop	{r7}
 968              		.cfi_restore 7
 969              		.cfi_def_cfa_offset 0
 970 0052 7047     		bx	lr
 971              	.L57:
 972              		.align	2
 973              	.L56:
 974 0054 00000000 		.word	CapSense_CSD_sensorEnableMask
 975              		.cfi_endproc
 976              	.LFE9:
 977              		.size	CapSense_CSD_EnableWidget, .-CapSense_CSD_EnableWidget
 978              		.section	.text.CapSense_CSD_DisableWidget,"ax",%progbits
 979              		.align	2
 980              		.global	CapSense_CSD_DisableWidget
 981              		.thumb
 982              		.thumb_func
 983              		.type	CapSense_CSD_DisableWidget, %function
 984              	CapSense_CSD_DisableWidget:
 985              	.LFB10:
 764:Generated_Source\PSoC5/CapSense_CSD_CSHL.c **** 
 765:Generated_Source\PSoC5/CapSense_CSD_CSHL.c **** 
 766:Generated_Source\PSoC5/CapSense_CSD_CSHL.c **** /*******************************************************************************
 767:Generated_Source\PSoC5/CapSense_CSD_CSHL.c **** * Function Name: CapSense_CSD_DisableWidget
 768:Generated_Source\PSoC5/CapSense_CSD_CSHL.c **** ********************************************************************************
 769:Generated_Source\PSoC5/CapSense_CSD_CSHL.c **** *
 770:Generated_Source\PSoC5/CapSense_CSD_CSHL.c **** * Summary:
 771:Generated_Source\PSoC5/CapSense_CSD_CSHL.c **** *  Disable all widget elements (sensors) from scanning process.
 772:Generated_Source\PSoC5/CapSense_CSD_CSHL.c **** *
ARM GAS  C:\Users\holge\AppData\Local\Temp\ccfhesHk.s 			page 32


 773:Generated_Source\PSoC5/CapSense_CSD_CSHL.c **** * Parameters:
 774:Generated_Source\PSoC5/CapSense_CSD_CSHL.c **** *  widget:  widget number.
 775:Generated_Source\PSoC5/CapSense_CSD_CSHL.c **** *
 776:Generated_Source\PSoC5/CapSense_CSD_CSHL.c **** * Return:
 777:Generated_Source\PSoC5/CapSense_CSD_CSHL.c **** *  None
 778:Generated_Source\PSoC5/CapSense_CSD_CSHL.c **** *
 779:Generated_Source\PSoC5/CapSense_CSD_CSHL.c **** * Global Variables:
 780:Generated_Source\PSoC5/CapSense_CSD_CSHL.c **** *  CapSense_CSD_sensorEnableMask[] - used to store the sensor scanning 
 781:Generated_Source\PSoC5/CapSense_CSD_CSHL.c **** *  state.
 782:Generated_Source\PSoC5/CapSense_CSD_CSHL.c **** *  CapSense_CSD_sensorEnableMask[0] contains the masked bits for sensors 
 783:Generated_Source\PSoC5/CapSense_CSD_CSHL.c **** *  0 through 7 (sensor 0 is bit 0, sensor 1 is bit 1).
 784:Generated_Source\PSoC5/CapSense_CSD_CSHL.c **** *  CapSense_CSD_sensorEnableMask[1] contains the masked bits for 
 785:Generated_Source\PSoC5/CapSense_CSD_CSHL.c **** *  sensors 8 through 15 (if needed), and so on.
 786:Generated_Source\PSoC5/CapSense_CSD_CSHL.c **** *  0 - sensor doesn't scan by CapSense_CSD_ScanEnabledWidgets().
 787:Generated_Source\PSoC5/CapSense_CSD_CSHL.c **** *  1 - sensor scans by CapSense_CSD_ScanEnabledWidgets().
 788:Generated_Source\PSoC5/CapSense_CSD_CSHL.c **** *
 789:Generated_Source\PSoC5/CapSense_CSD_CSHL.c **** * Reentrant:
 790:Generated_Source\PSoC5/CapSense_CSD_CSHL.c **** *  No
 791:Generated_Source\PSoC5/CapSense_CSD_CSHL.c **** *
 792:Generated_Source\PSoC5/CapSense_CSD_CSHL.c **** *******************************************************************************/
 793:Generated_Source\PSoC5/CapSense_CSD_CSHL.c **** void CapSense_CSD_DisableWidget(uint8 widget)
 794:Generated_Source\PSoC5/CapSense_CSD_CSHL.c ****                                     
 795:Generated_Source\PSoC5/CapSense_CSD_CSHL.c **** {
 986              		.loc 1 795 0
 987              		.cfi_startproc
 988              		@ args = 0, pretend = 0, frame = 16
 989              		@ frame_needed = 1, uses_anonymous_args = 0
 990              		@ link register save eliminated.
 991 0000 80B4     		push	{r7}
 992              		.cfi_def_cfa_offset 4
 993              		.cfi_offset 7, -4
 994 0002 85B0     		sub	sp, sp, #20
 995              		.cfi_def_cfa_offset 24
 996 0004 00AF     		add	r7, sp, #0
 997              		.cfi_def_cfa_register 7
 998 0006 0346     		mov	r3, r0
 999 0008 FB71     		strb	r3, [r7, #7]
 796:Generated_Source\PSoC5/CapSense_CSD_CSHL.c ****     uint8 pos;
 797:Generated_Source\PSoC5/CapSense_CSD_CSHL.c ****     uint8 enMask;
 798:Generated_Source\PSoC5/CapSense_CSD_CSHL.c ****     uint8 rawIndex = CapSense_CSD_rawDataIndex[widget];
 1000              		.loc 1 798 0
 1001 000a 0023     		movs	r3, #0
 1002 000c FB73     		strb	r3, [r7, #15]
 799:Generated_Source\PSoC5/CapSense_CSD_CSHL.c ****     uint8 numberOfSensors = CapSense_CSD_numberOfSensors[widget] + rawIndex;
 1003              		.loc 1 799 0
 1004 000e 0522     		movs	r2, #5
 1005 0010 FB7B     		ldrb	r3, [r7, #15]
 1006 0012 1344     		add	r3, r3, r2
 1007 0014 BB73     		strb	r3, [r7, #14]
 1008              	.L59:
 800:Generated_Source\PSoC5/CapSense_CSD_CSHL.c ****    
 801:Generated_Source\PSoC5/CapSense_CSD_CSHL.c ****     /* Disable all sensors of the widget */
 802:Generated_Source\PSoC5/CapSense_CSD_CSHL.c ****     do
 803:Generated_Source\PSoC5/CapSense_CSD_CSHL.c ****     {
 804:Generated_Source\PSoC5/CapSense_CSD_CSHL.c ****         pos = (rawIndex >> 3u);
 1009              		.loc 1 804 0 discriminator 1
 1010 0016 FB7B     		ldrb	r3, [r7, #15]	@ zero_extendqisi2
ARM GAS  C:\Users\holge\AppData\Local\Temp\ccfhesHk.s 			page 33


 1011 0018 DB08     		lsrs	r3, r3, #3
 1012 001a 7B73     		strb	r3, [r7, #13]
 805:Generated_Source\PSoC5/CapSense_CSD_CSHL.c ****         enMask = 0x01u << (rawIndex & 0x07u);
 1013              		.loc 1 805 0 discriminator 1
 1014 001c FB7B     		ldrb	r3, [r7, #15]	@ zero_extendqisi2
 1015 001e 03F00703 		and	r3, r3, #7
 1016 0022 0122     		movs	r2, #1
 1017 0024 02FA03F3 		lsl	r3, r2, r3
 1018 0028 3B73     		strb	r3, [r7, #12]
 806:Generated_Source\PSoC5/CapSense_CSD_CSHL.c ****         
 807:Generated_Source\PSoC5/CapSense_CSD_CSHL.c ****         CapSense_CSD_sensorEnableMask[pos] &= (uint8)~enMask;
 1019              		.loc 1 807 0 discriminator 1
 1020 002a 7B7B     		ldrb	r3, [r7, #13]	@ zero_extendqisi2
 1021 002c 7A7B     		ldrb	r2, [r7, #13]	@ zero_extendqisi2
 1022 002e 0A49     		ldr	r1, .L60
 1023 0030 895C     		ldrb	r1, [r1, r2]	@ zero_extendqisi2
 1024 0032 3A7B     		ldrb	r2, [r7, #12]
 1025 0034 D243     		mvns	r2, r2
 1026 0036 D2B2     		uxtb	r2, r2
 1027 0038 0A40     		ands	r2, r2, r1
 1028 003a D1B2     		uxtb	r1, r2
 1029 003c 064A     		ldr	r2, .L60
 1030 003e D154     		strb	r1, [r2, r3]
 808:Generated_Source\PSoC5/CapSense_CSD_CSHL.c ****         rawIndex++;
 1031              		.loc 1 808 0 discriminator 1
 1032 0040 FB7B     		ldrb	r3, [r7, #15]	@ zero_extendqisi2
 1033 0042 0133     		adds	r3, r3, #1
 1034 0044 FB73     		strb	r3, [r7, #15]
 809:Generated_Source\PSoC5/CapSense_CSD_CSHL.c ****     }
 810:Generated_Source\PSoC5/CapSense_CSD_CSHL.c ****     while(rawIndex < numberOfSensors);
 1035              		.loc 1 810 0 discriminator 1
 1036 0046 FA7B     		ldrb	r2, [r7, #15]	@ zero_extendqisi2
 1037 0048 BB7B     		ldrb	r3, [r7, #14]	@ zero_extendqisi2
 1038 004a 9A42     		cmp	r2, r3
 1039 004c E3D3     		bcc	.L59
 811:Generated_Source\PSoC5/CapSense_CSD_CSHL.c ****     
 812:Generated_Source\PSoC5/CapSense_CSD_CSHL.c **** 
 813:Generated_Source\PSoC5/CapSense_CSD_CSHL.c **** }
 1040              		.loc 1 813 0
 1041 004e 00BF     		nop
 1042 0050 1437     		adds	r7, r7, #20
 1043              		.cfi_def_cfa_offset 4
 1044 0052 BD46     		mov	sp, r7
 1045              		.cfi_def_cfa_register 13
 1046              		@ sp needed
 1047 0054 80BC     		pop	{r7}
 1048              		.cfi_restore 7
 1049              		.cfi_def_cfa_offset 0
 1050 0056 7047     		bx	lr
 1051              	.L61:
 1052              		.align	2
 1053              	.L60:
 1054 0058 00000000 		.word	CapSense_CSD_sensorEnableMask
 1055              		.cfi_endproc
 1056              	.LFE10:
 1057              		.size	CapSense_CSD_DisableWidget, .-CapSense_CSD_DisableWidget
 1058              		.section	.text.CapSense_CSD_FindMaximum,"ax",%progbits
ARM GAS  C:\Users\holge\AppData\Local\Temp\ccfhesHk.s 			page 34


 1059              		.align	2
 1060              		.global	CapSense_CSD_FindMaximum
 1061              		.thumb
 1062              		.thumb_func
 1063              		.type	CapSense_CSD_FindMaximum, %function
 1064              	CapSense_CSD_FindMaximum:
 1065              	.LFB11:
 814:Generated_Source\PSoC5/CapSense_CSD_CSHL.c **** #if(CapSense_CSD_TOTAL_CENTROIDS_COUNT)
 815:Generated_Source\PSoC5/CapSense_CSD_CSHL.c ****     /*******************************************************************************
 816:Generated_Source\PSoC5/CapSense_CSD_CSHL.c ****     * Function Name: CapSense_CSD_FindMaximum
 817:Generated_Source\PSoC5/CapSense_CSD_CSHL.c ****     ********************************************************************************
 818:Generated_Source\PSoC5/CapSense_CSD_CSHL.c ****     *
 819:Generated_Source\PSoC5/CapSense_CSD_CSHL.c ****     * Summary:
 820:Generated_Source\PSoC5/CapSense_CSD_CSHL.c ****     *  Finds index of maximum element within defined centroid. Checks 
 821:Generated_Source\PSoC5/CapSense_CSD_CSHL.c ****     *  CapSense_CSD_SensorSignal[] within defined cenrtoid and 
 822:Generated_Source\PSoC5/CapSense_CSD_CSHL.c ****     *  returns index of maximum element. The values below finger threshold are 
 823:Generated_Source\PSoC5/CapSense_CSD_CSHL.c ****     *  ignored.
 824:Generated_Source\PSoC5/CapSense_CSD_CSHL.c ****     *  The centrod defines by offset of first element and number of elements - count.
 825:Generated_Source\PSoC5/CapSense_CSD_CSHL.c ****     *  The diplexed centroid requires at least consecutive two elements above
 826:Generated_Source\PSoC5/CapSense_CSD_CSHL.c ****     *  FingerThreshold to find index of maximum element.
 827:Generated_Source\PSoC5/CapSense_CSD_CSHL.c ****     * 
 828:Generated_Source\PSoC5/CapSense_CSD_CSHL.c ****     * Parameters:
 829:Generated_Source\PSoC5/CapSense_CSD_CSHL.c ****     *  offset:  Start index of cetroid in CapSense_CSD_sensorSignal[] array.
 830:Generated_Source\PSoC5/CapSense_CSD_CSHL.c ****     *  count:   number of elements within centroid.
 831:Generated_Source\PSoC5/CapSense_CSD_CSHL.c ****     *  fingerThreshold:  Finger threshould.
 832:Generated_Source\PSoC5/CapSense_CSD_CSHL.c ****     *  diplex:   pointer to diplex table.
 833:Generated_Source\PSoC5/CapSense_CSD_CSHL.c ****     * 
 834:Generated_Source\PSoC5/CapSense_CSD_CSHL.c ****     * Return:
 835:Generated_Source\PSoC5/CapSense_CSD_CSHL.c ****     *  Returns index of maximum element within defined centroid.
 836:Generated_Source\PSoC5/CapSense_CSD_CSHL.c ****     *  If index of maximum element doesn't find the 0xFF returns.
 837:Generated_Source\PSoC5/CapSense_CSD_CSHL.c ****     * 
 838:Generated_Source\PSoC5/CapSense_CSD_CSHL.c ****     *******************************************************************************/
 839:Generated_Source\PSoC5/CapSense_CSD_CSHL.c ****     #if (CapSense_CSD_IS_DIPLEX_SLIDER)
 840:Generated_Source\PSoC5/CapSense_CSD_CSHL.c ****         uint8 CapSense_CSD_FindMaximum(uint8 offset, uint8 count, uint16 fingerThreshold, const uin
 841:Generated_Source\PSoC5/CapSense_CSD_CSHL.c **** 	                                       
 842:Generated_Source\PSoC5/CapSense_CSD_CSHL.c ****     #else 
 843:Generated_Source\PSoC5/CapSense_CSD_CSHL.c ****         uint8 CapSense_CSD_FindMaximum(uint8 offset, uint8 count, uint16 fingerThreshold)
 844:Generated_Source\PSoC5/CapSense_CSD_CSHL.c **** 	                                       
 845:Generated_Source\PSoC5/CapSense_CSD_CSHL.c ****     #endif /* (CapSense_CSD_IS_DIPLEX_SLIDER) */
 846:Generated_Source\PSoC5/CapSense_CSD_CSHL.c ****     {
 1066              		.loc 1 846 0
 1067              		.cfi_startproc
 1068              		@ args = 0, pretend = 0, frame = 16
 1069              		@ frame_needed = 1, uses_anonymous_args = 0
 1070              		@ link register save eliminated.
 1071 0000 80B4     		push	{r7}
 1072              		.cfi_def_cfa_offset 4
 1073              		.cfi_offset 7, -4
 1074 0002 85B0     		sub	sp, sp, #20
 1075              		.cfi_def_cfa_offset 24
 1076 0004 00AF     		add	r7, sp, #0
 1077              		.cfi_def_cfa_register 7
 1078 0006 0346     		mov	r3, r0
 1079 0008 FB71     		strb	r3, [r7, #7]
 1080 000a 0B46     		mov	r3, r1
 1081 000c BB71     		strb	r3, [r7, #6]
 1082 000e 1346     		mov	r3, r2	@ movhi
ARM GAS  C:\Users\holge\AppData\Local\Temp\ccfhesHk.s 			page 35


 1083 0010 BB80     		strh	r3, [r7, #4]	@ movhi
 847:Generated_Source\PSoC5/CapSense_CSD_CSHL.c ****         uint8 i;
 848:Generated_Source\PSoC5/CapSense_CSD_CSHL.c ****         #if (CapSense_CSD_IS_DIPLEX_SLIDER)        
 849:Generated_Source\PSoC5/CapSense_CSD_CSHL.c ****             uint8 curPos = 0u;
 850:Generated_Source\PSoC5/CapSense_CSD_CSHL.c ****             /* No centroid at the Start */
 851:Generated_Source\PSoC5/CapSense_CSD_CSHL.c ****             uint8 curCntrdSize = 0u;
 852:Generated_Source\PSoC5/CapSense_CSD_CSHL.c ****             uint8 curCtrdStartPos = 0xFFu;
 853:Generated_Source\PSoC5/CapSense_CSD_CSHL.c ****             /* The biggset centroid is zero */
 854:Generated_Source\PSoC5/CapSense_CSD_CSHL.c ****             uint8 biggestCtrdSize = 0u;
 855:Generated_Source\PSoC5/CapSense_CSD_CSHL.c ****             uint8 biggestCtrdStartPos = 0u;
 856:Generated_Source\PSoC5/CapSense_CSD_CSHL.c ****         #endif /* (CapSense_CSD_IS_DIPLEX_SLIDER) */
 857:Generated_Source\PSoC5/CapSense_CSD_CSHL.c ****         uint8 maximum = 0xFFu;
 1084              		.loc 1 857 0
 1085 0012 FF23     		movs	r3, #255
 1086 0014 BB73     		strb	r3, [r7, #14]
 858:Generated_Source\PSoC5/CapSense_CSD_CSHL.c ****         uint16 temp = 0u;
 1087              		.loc 1 858 0
 1088 0016 0023     		movs	r3, #0
 1089 0018 BB81     		strh	r3, [r7, #12]	@ movhi
 859:Generated_Source\PSoC5/CapSense_CSD_CSHL.c ****         uint16 *startOfSlider = &CapSense_CSD_sensorSignal[offset]; 
 1090              		.loc 1 859 0
 1091 001a FB79     		ldrb	r3, [r7, #7]	@ zero_extendqisi2
 1092 001c 5B00     		lsls	r3, r3, #1
 1093 001e 154A     		ldr	r2, .L67
 1094 0020 1344     		add	r3, r3, r2
 1095 0022 BB60     		str	r3, [r7, #8]
 860:Generated_Source\PSoC5/CapSense_CSD_CSHL.c **** 
 861:Generated_Source\PSoC5/CapSense_CSD_CSHL.c ****         #if (CapSense_CSD_IS_DIPLEX_SLIDER)        
 862:Generated_Source\PSoC5/CapSense_CSD_CSHL.c ****             if(diplex != 0u)
 863:Generated_Source\PSoC5/CapSense_CSD_CSHL.c ****             {
 864:Generated_Source\PSoC5/CapSense_CSD_CSHL.c ****                 /* Initialize */
 865:Generated_Source\PSoC5/CapSense_CSD_CSHL.c ****                 i = 0u;
 866:Generated_Source\PSoC5/CapSense_CSD_CSHL.c ****                 
 867:Generated_Source\PSoC5/CapSense_CSD_CSHL.c ****                 /* Make slider x2 as Diplexed */
 868:Generated_Source\PSoC5/CapSense_CSD_CSHL.c ****                 count <<= 1u;
 869:Generated_Source\PSoC5/CapSense_CSD_CSHL.c ****                 while(1u)
 870:Generated_Source\PSoC5/CapSense_CSD_CSHL.c ****                 { 
 871:Generated_Source\PSoC5/CapSense_CSD_CSHL.c ****                     if (startOfSlider[curPos] > 0u)    /* Looking for centroids */
 872:Generated_Source\PSoC5/CapSense_CSD_CSHL.c ****                     {
 873:Generated_Source\PSoC5/CapSense_CSD_CSHL.c ****                         if (curCtrdStartPos == 0xFFu)
 874:Generated_Source\PSoC5/CapSense_CSD_CSHL.c ****                         {
 875:Generated_Source\PSoC5/CapSense_CSD_CSHL.c ****                             /* Start of centroid */
 876:Generated_Source\PSoC5/CapSense_CSD_CSHL.c ****                             curCtrdStartPos = i;
 877:Generated_Source\PSoC5/CapSense_CSD_CSHL.c ****                             curCntrdSize++;
 878:Generated_Source\PSoC5/CapSense_CSD_CSHL.c ****                         }
 879:Generated_Source\PSoC5/CapSense_CSD_CSHL.c ****                         else
 880:Generated_Source\PSoC5/CapSense_CSD_CSHL.c ****                         {
 881:Generated_Source\PSoC5/CapSense_CSD_CSHL.c ****                             curCntrdSize++;
 882:Generated_Source\PSoC5/CapSense_CSD_CSHL.c ****                         }
 883:Generated_Source\PSoC5/CapSense_CSD_CSHL.c ****                     }
 884:Generated_Source\PSoC5/CapSense_CSD_CSHL.c ****                     else   /* Select the bigest and indicate zero start */
 885:Generated_Source\PSoC5/CapSense_CSD_CSHL.c ****                     {          
 886:Generated_Source\PSoC5/CapSense_CSD_CSHL.c ****                         if(curCntrdSize > 0u)
 887:Generated_Source\PSoC5/CapSense_CSD_CSHL.c ****                         {
 888:Generated_Source\PSoC5/CapSense_CSD_CSHL.c ****                             /* We are in the end of current */
 889:Generated_Source\PSoC5/CapSense_CSD_CSHL.c ****                             if(curCntrdSize > biggestCtrdSize)
 890:Generated_Source\PSoC5/CapSense_CSD_CSHL.c ****                             {
ARM GAS  C:\Users\holge\AppData\Local\Temp\ccfhesHk.s 			page 36


 891:Generated_Source\PSoC5/CapSense_CSD_CSHL.c ****                                 biggestCtrdSize = curCntrdSize;
 892:Generated_Source\PSoC5/CapSense_CSD_CSHL.c ****                                 biggestCtrdStartPos = curCtrdStartPos;
 893:Generated_Source\PSoC5/CapSense_CSD_CSHL.c ****                             }
 894:Generated_Source\PSoC5/CapSense_CSD_CSHL.c ****                             
 895:Generated_Source\PSoC5/CapSense_CSD_CSHL.c ****                             curCntrdSize = 0u;
 896:Generated_Source\PSoC5/CapSense_CSD_CSHL.c ****                             curCtrdStartPos = 0xFFu;
 897:Generated_Source\PSoC5/CapSense_CSD_CSHL.c ****                         }
 898:Generated_Source\PSoC5/CapSense_CSD_CSHL.c ****                     }
 899:Generated_Source\PSoC5/CapSense_CSD_CSHL.c ****                     
 900:Generated_Source\PSoC5/CapSense_CSD_CSHL.c ****                     i++; 
 901:Generated_Source\PSoC5/CapSense_CSD_CSHL.c ****                     curPos = diplex[i];
 902:Generated_Source\PSoC5/CapSense_CSD_CSHL.c ****                     if(i == count)
 903:Generated_Source\PSoC5/CapSense_CSD_CSHL.c ****                     {
 904:Generated_Source\PSoC5/CapSense_CSD_CSHL.c ****                         break;
 905:Generated_Source\PSoC5/CapSense_CSD_CSHL.c ****                     }            
 906:Generated_Source\PSoC5/CapSense_CSD_CSHL.c ****                 }
 907:Generated_Source\PSoC5/CapSense_CSD_CSHL.c ****                     
 908:Generated_Source\PSoC5/CapSense_CSD_CSHL.c ****                     /* Find the biggest centroid if two are the same size, last one wins
 909:Generated_Source\PSoC5/CapSense_CSD_CSHL.c ****                        We are in the end of current */
 910:Generated_Source\PSoC5/CapSense_CSD_CSHL.c ****                 if (curCntrdSize >= biggestCtrdSize) 
 911:Generated_Source\PSoC5/CapSense_CSD_CSHL.c ****                 {
 912:Generated_Source\PSoC5/CapSense_CSD_CSHL.c ****                     biggestCtrdSize = curCntrdSize;
 913:Generated_Source\PSoC5/CapSense_CSD_CSHL.c ****                     biggestCtrdStartPos = curCtrdStartPos;
 914:Generated_Source\PSoC5/CapSense_CSD_CSHL.c ****                 }
 915:Generated_Source\PSoC5/CapSense_CSD_CSHL.c ****             }
 916:Generated_Source\PSoC5/CapSense_CSD_CSHL.c ****             else
 917:Generated_Source\PSoC5/CapSense_CSD_CSHL.c ****             {
 918:Generated_Source\PSoC5/CapSense_CSD_CSHL.c ****                 /* Without diplexing */ 
 919:Generated_Source\PSoC5/CapSense_CSD_CSHL.c ****                 biggestCtrdSize = count;
 920:Generated_Source\PSoC5/CapSense_CSD_CSHL.c ****             }
 921:Generated_Source\PSoC5/CapSense_CSD_CSHL.c ****                         
 922:Generated_Source\PSoC5/CapSense_CSD_CSHL.c **** 
 923:Generated_Source\PSoC5/CapSense_CSD_CSHL.c ****             /* Check centroid size */
 924:Generated_Source\PSoC5/CapSense_CSD_CSHL.c ****             #if (CapSense_CSD_IS_NON_DIPLEX_SLIDER)
 925:Generated_Source\PSoC5/CapSense_CSD_CSHL.c ****                 if((biggestCtrdSize >= 2u) || ((biggestCtrdSize == 1u) && (diplex == 0u)))
 926:Generated_Source\PSoC5/CapSense_CSD_CSHL.c ****             #else                    
 927:Generated_Source\PSoC5/CapSense_CSD_CSHL.c ****                 if(biggestCtrdSize >= 2u)
 928:Generated_Source\PSoC5/CapSense_CSD_CSHL.c ****             #endif /* (CapSense_CSD_IS_NON_DIPLEX_SLIDER) */
 929:Generated_Source\PSoC5/CapSense_CSD_CSHL.c ****                 {
 930:Generated_Source\PSoC5/CapSense_CSD_CSHL.c ****                     for (i = biggestCtrdStartPos; i < (biggestCtrdStartPos + biggestCtrdSize); i++)
 931:Generated_Source\PSoC5/CapSense_CSD_CSHL.c ****                     {
 932:Generated_Source\PSoC5/CapSense_CSD_CSHL.c ****                         #if (CapSense_CSD_IS_DIPLEX_SLIDER && CapSense_CSD_IS_NON_DIPLEX_SLIDER)
 933:Generated_Source\PSoC5/CapSense_CSD_CSHL.c ****                             if (diplex == 0u)
 934:Generated_Source\PSoC5/CapSense_CSD_CSHL.c ****                             {
 935:Generated_Source\PSoC5/CapSense_CSD_CSHL.c ****                                 curPos = i;
 936:Generated_Source\PSoC5/CapSense_CSD_CSHL.c ****                             }
 937:Generated_Source\PSoC5/CapSense_CSD_CSHL.c ****                             else
 938:Generated_Source\PSoC5/CapSense_CSD_CSHL.c ****                             {
 939:Generated_Source\PSoC5/CapSense_CSD_CSHL.c ****                                 curPos = diplex[i];
 940:Generated_Source\PSoC5/CapSense_CSD_CSHL.c ****                             }                    
 941:Generated_Source\PSoC5/CapSense_CSD_CSHL.c ****                         #elif (CapSense_CSD_IS_DIPLEX_SLIDER)                    
 942:Generated_Source\PSoC5/CapSense_CSD_CSHL.c ****                             curPos = diplex[i];                    
 943:Generated_Source\PSoC5/CapSense_CSD_CSHL.c ****                         #endif /* (CapSense_CSD_IS_DIPLEX_SLIDER && CapSense_CSD_IS_NON_DIPLEX_SLID
 944:Generated_Source\PSoC5/CapSense_CSD_CSHL.c ****                         /* Looking for the grater element within centroid */
 945:Generated_Source\PSoC5/CapSense_CSD_CSHL.c ****                         if(startOfSlider[curPos] > fingerThreshold)
 946:Generated_Source\PSoC5/CapSense_CSD_CSHL.c ****                         {
 947:Generated_Source\PSoC5/CapSense_CSD_CSHL.c ****                             if(startOfSlider[curPos] > temp)
ARM GAS  C:\Users\holge\AppData\Local\Temp\ccfhesHk.s 			page 37


 948:Generated_Source\PSoC5/CapSense_CSD_CSHL.c ****                             {
 949:Generated_Source\PSoC5/CapSense_CSD_CSHL.c ****                                 maximum = i;
 950:Generated_Source\PSoC5/CapSense_CSD_CSHL.c ****                                 temp = startOfSlider[curPos];
 951:Generated_Source\PSoC5/CapSense_CSD_CSHL.c ****                             }
 952:Generated_Source\PSoC5/CapSense_CSD_CSHL.c ****                         }
 953:Generated_Source\PSoC5/CapSense_CSD_CSHL.c ****                     }
 954:Generated_Source\PSoC5/CapSense_CSD_CSHL.c ****                 } 
 955:Generated_Source\PSoC5/CapSense_CSD_CSHL.c ****         #else
 956:Generated_Source\PSoC5/CapSense_CSD_CSHL.c ****             for (i = 0u; i < count; i++)
 1096              		.loc 1 956 0
 1097 0024 0023     		movs	r3, #0
 1098 0026 FB73     		strb	r3, [r7, #15]
 1099 0028 1AE0     		b	.L63
 1100              	.L65:
 957:Generated_Source\PSoC5/CapSense_CSD_CSHL.c ****             {                      
 958:Generated_Source\PSoC5/CapSense_CSD_CSHL.c ****                 /* Looking for the grater element within centroid */
 959:Generated_Source\PSoC5/CapSense_CSD_CSHL.c ****                 if(startOfSlider[i] > fingerThreshold)
 1101              		.loc 1 959 0
 1102 002a FB7B     		ldrb	r3, [r7, #15]	@ zero_extendqisi2
 1103 002c 5B00     		lsls	r3, r3, #1
 1104 002e BA68     		ldr	r2, [r7, #8]
 1105 0030 1344     		add	r3, r3, r2
 1106 0032 1B88     		ldrh	r3, [r3]
 1107 0034 BA88     		ldrh	r2, [r7, #4]
 1108 0036 9A42     		cmp	r2, r3
 1109 0038 0FD2     		bcs	.L64
 960:Generated_Source\PSoC5/CapSense_CSD_CSHL.c ****                 {
 961:Generated_Source\PSoC5/CapSense_CSD_CSHL.c ****                     if(startOfSlider[i] > temp)
 1110              		.loc 1 961 0
 1111 003a FB7B     		ldrb	r3, [r7, #15]	@ zero_extendqisi2
 1112 003c 5B00     		lsls	r3, r3, #1
 1113 003e BA68     		ldr	r2, [r7, #8]
 1114 0040 1344     		add	r3, r3, r2
 1115 0042 1B88     		ldrh	r3, [r3]
 1116 0044 BA89     		ldrh	r2, [r7, #12]
 1117 0046 9A42     		cmp	r2, r3
 1118 0048 07D2     		bcs	.L64
 962:Generated_Source\PSoC5/CapSense_CSD_CSHL.c ****                     {
 963:Generated_Source\PSoC5/CapSense_CSD_CSHL.c ****                         maximum = i;
 1119              		.loc 1 963 0
 1120 004a FB7B     		ldrb	r3, [r7, #15]
 1121 004c BB73     		strb	r3, [r7, #14]
 964:Generated_Source\PSoC5/CapSense_CSD_CSHL.c ****                         temp = startOfSlider[i];
 1122              		.loc 1 964 0
 1123 004e FB7B     		ldrb	r3, [r7, #15]	@ zero_extendqisi2
 1124 0050 5B00     		lsls	r3, r3, #1
 1125 0052 BA68     		ldr	r2, [r7, #8]
 1126 0054 1344     		add	r3, r3, r2
 1127 0056 1B88     		ldrh	r3, [r3]	@ movhi
 1128 0058 BB81     		strh	r3, [r7, #12]	@ movhi
 1129              	.L64:
 956:Generated_Source\PSoC5/CapSense_CSD_CSHL.c ****             {                      
 1130              		.loc 1 956 0 discriminator 2
 1131 005a FB7B     		ldrb	r3, [r7, #15]	@ zero_extendqisi2
 1132 005c 0133     		adds	r3, r3, #1
 1133 005e FB73     		strb	r3, [r7, #15]
 1134              	.L63:
ARM GAS  C:\Users\holge\AppData\Local\Temp\ccfhesHk.s 			page 38


 956:Generated_Source\PSoC5/CapSense_CSD_CSHL.c ****             {                      
 1135              		.loc 1 956 0 is_stmt 0 discriminator 1
 1136 0060 FA7B     		ldrb	r2, [r7, #15]	@ zero_extendqisi2
 1137 0062 BB79     		ldrb	r3, [r7, #6]	@ zero_extendqisi2
 1138 0064 9A42     		cmp	r2, r3
 1139 0066 E0D3     		bcc	.L65
 965:Generated_Source\PSoC5/CapSense_CSD_CSHL.c ****                     }
 966:Generated_Source\PSoC5/CapSense_CSD_CSHL.c ****                 }
 967:Generated_Source\PSoC5/CapSense_CSD_CSHL.c ****             }    
 968:Generated_Source\PSoC5/CapSense_CSD_CSHL.c ****         #endif /* (CapSense_CSD_IS_DIPLEX_SLIDER) */
 969:Generated_Source\PSoC5/CapSense_CSD_CSHL.c ****         return (maximum);
 1140              		.loc 1 969 0 is_stmt 1
 1141 0068 BB7B     		ldrb	r3, [r7, #14]	@ zero_extendqisi2
 970:Generated_Source\PSoC5/CapSense_CSD_CSHL.c ****     }
 1142              		.loc 1 970 0
 1143 006a 1846     		mov	r0, r3
 1144 006c 1437     		adds	r7, r7, #20
 1145              		.cfi_def_cfa_offset 4
 1146 006e BD46     		mov	sp, r7
 1147              		.cfi_def_cfa_register 13
 1148              		@ sp needed
 1149 0070 80BC     		pop	{r7}
 1150              		.cfi_restore 7
 1151              		.cfi_def_cfa_offset 0
 1152 0072 7047     		bx	lr
 1153              	.L68:
 1154              		.align	2
 1155              	.L67:
 1156 0074 00000000 		.word	CapSense_CSD_sensorSignal
 1157              		.cfi_endproc
 1158              	.LFE11:
 1159              		.size	CapSense_CSD_FindMaximum, .-CapSense_CSD_FindMaximum
 1160              		.section	.text.CapSense_CSD_CalcCentroid,"ax",%progbits
 1161              		.align	2
 1162              		.global	CapSense_CSD_CalcCentroid
 1163              		.thumb
 1164              		.thumb_func
 1165              		.type	CapSense_CSD_CalcCentroid, %function
 1166              	CapSense_CSD_CalcCentroid:
 1167              	.LFB12:
 971:Generated_Source\PSoC5/CapSense_CSD_CSHL.c ****     
 972:Generated_Source\PSoC5/CapSense_CSD_CSHL.c ****     
 973:Generated_Source\PSoC5/CapSense_CSD_CSHL.c ****     /*******************************************************************************
 974:Generated_Source\PSoC5/CapSense_CSD_CSHL.c ****     * Function Name: CapSense_CSD_CalcCentroid
 975:Generated_Source\PSoC5/CapSense_CSD_CSHL.c ****     ********************************************************************************
 976:Generated_Source\PSoC5/CapSense_CSD_CSHL.c ****     *
 977:Generated_Source\PSoC5/CapSense_CSD_CSHL.c ****     * Summary:
 978:Generated_Source\PSoC5/CapSense_CSD_CSHL.c ****     *  Returns position value calculated accoring index of maximum element and API
 979:Generated_Source\PSoC5/CapSense_CSD_CSHL.c ****     *  resolution.
 980:Generated_Source\PSoC5/CapSense_CSD_CSHL.c ****     *
 981:Generated_Source\PSoC5/CapSense_CSD_CSHL.c ****     * Parameters:
 982:Generated_Source\PSoC5/CapSense_CSD_CSHL.c ****     *  type:  widget type.
 983:Generated_Source\PSoC5/CapSense_CSD_CSHL.c ****     *  diplex:  pointer to diplex table.
 984:Generated_Source\PSoC5/CapSense_CSD_CSHL.c ****     *  maximum:  Index of maximum element within centroid.
 985:Generated_Source\PSoC5/CapSense_CSD_CSHL.c ****     *  offset:   Start index of cetroid in CapSense_CSD_SensorSignal[] array.
 986:Generated_Source\PSoC5/CapSense_CSD_CSHL.c ****     *  count:    Number of elements within centroid.
 987:Generated_Source\PSoC5/CapSense_CSD_CSHL.c ****     *  resolution:  multiplicator calculated according to centroid type and
ARM GAS  C:\Users\holge\AppData\Local\Temp\ccfhesHk.s 			page 39


 988:Generated_Source\PSoC5/CapSense_CSD_CSHL.c ****     *  API resolution.
 989:Generated_Source\PSoC5/CapSense_CSD_CSHL.c ****     *  noiseThreshold:  Noise threshould.
 990:Generated_Source\PSoC5/CapSense_CSD_CSHL.c ****     * 
 991:Generated_Source\PSoC5/CapSense_CSD_CSHL.c ****     * Return:
 992:Generated_Source\PSoC5/CapSense_CSD_CSHL.c ****     *  Returns position value of the slider.
 993:Generated_Source\PSoC5/CapSense_CSD_CSHL.c ****     * 
 994:Generated_Source\PSoC5/CapSense_CSD_CSHL.c ****     *
 995:Generated_Source\PSoC5/CapSense_CSD_CSHL.c ****     * Reentrant:
 996:Generated_Source\PSoC5/CapSense_CSD_CSHL.c ****     *  No.
 997:Generated_Source\PSoC5/CapSense_CSD_CSHL.c ****     *
 998:Generated_Source\PSoC5/CapSense_CSD_CSHL.c ****     *******************************************************************************/
 999:Generated_Source\PSoC5/CapSense_CSD_CSHL.c ****     uint8 CapSense_CSD_CalcCentroid(uint8 maximum, uint8 offset, 
1000:Generated_Source\PSoC5/CapSense_CSD_CSHL.c ****                                         uint8 count, uint16 resolution, uint16 noiseThreshold)
1001:Generated_Source\PSoC5/CapSense_CSD_CSHL.c **** 	                                    
1002:Generated_Source\PSoC5/CapSense_CSD_CSHL.c ****     {
 1168              		.loc 1 1002 0
 1169              		.cfi_startproc
 1170              		@ args = 4, pretend = 0, frame = 32
 1171              		@ frame_needed = 1, uses_anonymous_args = 0
 1172              		@ link register save eliminated.
 1173 0000 90B4     		push	{r4, r7}
 1174              		.cfi_def_cfa_offset 8
 1175              		.cfi_offset 4, -8
 1176              		.cfi_offset 7, -4
 1177 0002 88B0     		sub	sp, sp, #32
 1178              		.cfi_def_cfa_offset 40
 1179 0004 00AF     		add	r7, sp, #0
 1180              		.cfi_def_cfa_register 7
 1181 0006 0446     		mov	r4, r0
 1182 0008 0846     		mov	r0, r1
 1183 000a 1146     		mov	r1, r2
 1184 000c 1A46     		mov	r2, r3
 1185 000e 2346     		mov	r3, r4
 1186 0010 FB71     		strb	r3, [r7, #7]
 1187 0012 0346     		mov	r3, r0
 1188 0014 BB71     		strb	r3, [r7, #6]
 1189 0016 0B46     		mov	r3, r1
 1190 0018 7B71     		strb	r3, [r7, #5]
 1191 001a 1346     		mov	r3, r2	@ movhi
 1192 001c 7B80     		strh	r3, [r7, #2]	@ movhi
1003:Generated_Source\PSoC5/CapSense_CSD_CSHL.c ****         #if ((CapSense_CSD_TOTAL_LINEAR_SLIDERS_COUNT > 0u) || (CapSense_CSD_TOTAL_TOUCH_PADS_COUNT
1004:Generated_Source\PSoC5/CapSense_CSD_CSHL.c ****             uint8 posPrev = 0u;
 1193              		.loc 1 1004 0
 1194 001e 0023     		movs	r3, #0
 1195 0020 FB77     		strb	r3, [r7, #31]
1005:Generated_Source\PSoC5/CapSense_CSD_CSHL.c ****             uint8 posNext = 0u;
 1196              		.loc 1 1005 0
 1197 0022 0023     		movs	r3, #0
 1198 0024 BB77     		strb	r3, [r7, #30]
1006:Generated_Source\PSoC5/CapSense_CSD_CSHL.c ****         #endif /* ((CapSense_CSD_TOTAL_LINEAR_SLIDERS_COUNT>0u) || (CapSense_CSD_TOTAL_TOUCH_PADS_C
1007:Generated_Source\PSoC5/CapSense_CSD_CSHL.c ****                
1008:Generated_Source\PSoC5/CapSense_CSD_CSHL.c ****         #if (CapSense_CSD_IS_DIPLEX_SLIDER)                
1009:Generated_Source\PSoC5/CapSense_CSD_CSHL.c ****             uint8 pos;
1010:Generated_Source\PSoC5/CapSense_CSD_CSHL.c ****         #endif /* (CapSense_CSD_IS_DIPLEX_SLIDER) */
1011:Generated_Source\PSoC5/CapSense_CSD_CSHL.c ****         
1012:Generated_Source\PSoC5/CapSense_CSD_CSHL.c ****         /* Helps while centroid calulation */
1013:Generated_Source\PSoC5/CapSense_CSD_CSHL.c ****         static uint16 CapSense_CSD_centroid[3u];
ARM GAS  C:\Users\holge\AppData\Local\Temp\ccfhesHk.s 			page 40


1014:Generated_Source\PSoC5/CapSense_CSD_CSHL.c **** 
1015:Generated_Source\PSoC5/CapSense_CSD_CSHL.c ****         uint8 position;
1016:Generated_Source\PSoC5/CapSense_CSD_CSHL.c ****         uint32 numerator;
1017:Generated_Source\PSoC5/CapSense_CSD_CSHL.c ****         int32 denominator;
1018:Generated_Source\PSoC5/CapSense_CSD_CSHL.c ****         uint16 *startOfSlider = &CapSense_CSD_sensorSignal[offset];
 1199              		.loc 1 1018 0
 1200 0026 BB79     		ldrb	r3, [r7, #6]	@ zero_extendqisi2
 1201 0028 5B00     		lsls	r3, r3, #1
 1202 002a 494A     		ldr	r2, .L79
 1203 002c 1344     		add	r3, r3, r2
 1204 002e BB61     		str	r3, [r7, #24]
1019:Generated_Source\PSoC5/CapSense_CSD_CSHL.c ****                     
1020:Generated_Source\PSoC5/CapSense_CSD_CSHL.c ****         #if (CapSense_CSD_ADD_SLIDER_TYPE)
1021:Generated_Source\PSoC5/CapSense_CSD_CSHL.c ****             if(type == CapSense_CSD_TYPE_RADIAL_SLIDER)
1022:Generated_Source\PSoC5/CapSense_CSD_CSHL.c ****             {
1023:Generated_Source\PSoC5/CapSense_CSD_CSHL.c ****         #endif /* (CapSense_CSD_ADD_SLIDER_TYPE) */
1024:Generated_Source\PSoC5/CapSense_CSD_CSHL.c **** 
1025:Generated_Source\PSoC5/CapSense_CSD_CSHL.c ****             #if (CapSense_CSD_TOTAL_RADIAL_SLIDERS_COUNT > 0u)                
1026:Generated_Source\PSoC5/CapSense_CSD_CSHL.c ****                 /* Copy Signal for found centriod */
1027:Generated_Source\PSoC5/CapSense_CSD_CSHL.c ****                 CapSense_CSD_centroid[CapSense_CSD_POS] = startOfSlider[maximum];
1028:Generated_Source\PSoC5/CapSense_CSD_CSHL.c ****                  
1029:Generated_Source\PSoC5/CapSense_CSD_CSHL.c ****                 /* Check borders for ROTARY Slider */
1030:Generated_Source\PSoC5/CapSense_CSD_CSHL.c ****                 if (maximum == 0u)                   /* Start of centroid */
1031:Generated_Source\PSoC5/CapSense_CSD_CSHL.c ****                 { 
1032:Generated_Source\PSoC5/CapSense_CSD_CSHL.c ****                     CapSense_CSD_centroid[CapSense_CSD_POS_PREV] = startOfSlider[count - 1u];
1033:Generated_Source\PSoC5/CapSense_CSD_CSHL.c ****                     CapSense_CSD_centroid[CapSense_CSD_POS_NEXT] = startOfSlider[1u];
1034:Generated_Source\PSoC5/CapSense_CSD_CSHL.c ****                 }
1035:Generated_Source\PSoC5/CapSense_CSD_CSHL.c ****                 else if (maximum == (count - 1u))    /* End of centroid */
1036:Generated_Source\PSoC5/CapSense_CSD_CSHL.c ****                 {
1037:Generated_Source\PSoC5/CapSense_CSD_CSHL.c ****                     CapSense_CSD_centroid[CapSense_CSD_POS_PREV] = startOfSlider[maximum - 1u];
1038:Generated_Source\PSoC5/CapSense_CSD_CSHL.c ****                     CapSense_CSD_centroid[CapSense_CSD_POS_NEXT] = startOfSlider[0u];
1039:Generated_Source\PSoC5/CapSense_CSD_CSHL.c ****                 }
1040:Generated_Source\PSoC5/CapSense_CSD_CSHL.c ****                 else                                /* Not first Not last */
1041:Generated_Source\PSoC5/CapSense_CSD_CSHL.c ****                 {
1042:Generated_Source\PSoC5/CapSense_CSD_CSHL.c ****                     CapSense_CSD_centroid[CapSense_CSD_POS_PREV] = startOfSlider[maximum - 1u];
1043:Generated_Source\PSoC5/CapSense_CSD_CSHL.c ****                     CapSense_CSD_centroid[CapSense_CSD_POS_NEXT] = startOfSlider[maximum + 1u];
1044:Generated_Source\PSoC5/CapSense_CSD_CSHL.c ****                 }
1045:Generated_Source\PSoC5/CapSense_CSD_CSHL.c ****             #endif /* (CapSense_CSD_TOTAL_RADIAL_SLIDERS_COUNT > 0u) */
1046:Generated_Source\PSoC5/CapSense_CSD_CSHL.c **** 
1047:Generated_Source\PSoC5/CapSense_CSD_CSHL.c ****         #if (CapSense_CSD_ADD_SLIDER_TYPE)
1048:Generated_Source\PSoC5/CapSense_CSD_CSHL.c ****             }
1049:Generated_Source\PSoC5/CapSense_CSD_CSHL.c ****             else
1050:Generated_Source\PSoC5/CapSense_CSD_CSHL.c ****             {
1051:Generated_Source\PSoC5/CapSense_CSD_CSHL.c ****         #endif /* (CapSense_CSD_ADD_SLIDER_TYPE) */
1052:Generated_Source\PSoC5/CapSense_CSD_CSHL.c **** 
1053:Generated_Source\PSoC5/CapSense_CSD_CSHL.c ****             #if ((CapSense_CSD_TOTAL_LINEAR_SLIDERS_COUNT > 0u) || (CapSense_CSD_TOTAL_TOUCH_PADS_C
1054:Generated_Source\PSoC5/CapSense_CSD_CSHL.c ****                 #if (CapSense_CSD_IS_DIPLEX_SLIDER && CapSense_CSD_IS_NON_DIPLEX_SLIDER)           
1055:Generated_Source\PSoC5/CapSense_CSD_CSHL.c ****                     /* Calculate next and previous near to maximum */
1056:Generated_Source\PSoC5/CapSense_CSD_CSHL.c ****                     if(diplex == 0u)
1057:Generated_Source\PSoC5/CapSense_CSD_CSHL.c ****                     {
1058:Generated_Source\PSoC5/CapSense_CSD_CSHL.c ****                         pos     = maximum;
1059:Generated_Source\PSoC5/CapSense_CSD_CSHL.c ****                         posPrev = maximum - 1u;
1060:Generated_Source\PSoC5/CapSense_CSD_CSHL.c ****                         posNext = maximum + 1u; 
1061:Generated_Source\PSoC5/CapSense_CSD_CSHL.c ****                     }
1062:Generated_Source\PSoC5/CapSense_CSD_CSHL.c ****                     else
1063:Generated_Source\PSoC5/CapSense_CSD_CSHL.c ****                     {
1064:Generated_Source\PSoC5/CapSense_CSD_CSHL.c ****                         pos     = diplex[maximum];
ARM GAS  C:\Users\holge\AppData\Local\Temp\ccfhesHk.s 			page 41


1065:Generated_Source\PSoC5/CapSense_CSD_CSHL.c ****                         posPrev = diplex[maximum - 1u];
1066:Generated_Source\PSoC5/CapSense_CSD_CSHL.c ****                         posNext = diplex[maximum + 1u];
1067:Generated_Source\PSoC5/CapSense_CSD_CSHL.c ****                         count <<= 1u;
1068:Generated_Source\PSoC5/CapSense_CSD_CSHL.c ****                     }                    
1069:Generated_Source\PSoC5/CapSense_CSD_CSHL.c ****                 #elif (CapSense_CSD_IS_DIPLEX_SLIDER)
1070:Generated_Source\PSoC5/CapSense_CSD_CSHL.c ****                     /* Calculate next and previous near to maximum */
1071:Generated_Source\PSoC5/CapSense_CSD_CSHL.c ****                     pos     = diplex[maximum];
1072:Generated_Source\PSoC5/CapSense_CSD_CSHL.c ****                     posPrev = diplex[maximum - 1u];
1073:Generated_Source\PSoC5/CapSense_CSD_CSHL.c ****                     posNext = diplex[maximum + 1u];
1074:Generated_Source\PSoC5/CapSense_CSD_CSHL.c ****                     count <<= 1u;                    
1075:Generated_Source\PSoC5/CapSense_CSD_CSHL.c ****                 #else                    
1076:Generated_Source\PSoC5/CapSense_CSD_CSHL.c ****                     /* Calculate next and previous near to maximum */
1077:Generated_Source\PSoC5/CapSense_CSD_CSHL.c ****                     if (maximum >= 1u)
 1205              		.loc 1 1077 0
 1206 0030 FB79     		ldrb	r3, [r7, #7]	@ zero_extendqisi2
 1207 0032 002B     		cmp	r3, #0
 1208 0034 02D0     		beq	.L70
1078:Generated_Source\PSoC5/CapSense_CSD_CSHL.c ****                     {
1079:Generated_Source\PSoC5/CapSense_CSD_CSHL.c ****                         posPrev = maximum - 1u;
 1209              		.loc 1 1079 0
 1210 0036 FB79     		ldrb	r3, [r7, #7]
 1211 0038 013B     		subs	r3, r3, #1
 1212 003a FB77     		strb	r3, [r7, #31]
 1213              	.L70:
1080:Generated_Source\PSoC5/CapSense_CSD_CSHL.c ****                     }
1081:Generated_Source\PSoC5/CapSense_CSD_CSHL.c ****                     posNext = maximum + 1u; 
 1214              		.loc 1 1081 0
 1215 003c FB79     		ldrb	r3, [r7, #7]
 1216 003e 0133     		adds	r3, r3, #1
 1217 0040 BB77     		strb	r3, [r7, #30]
1082:Generated_Source\PSoC5/CapSense_CSD_CSHL.c ****                 #endif /* (CapSense_CSD_IS_DIPLEX_SLIDER && CapSense_CSD_IS_NON_DIPLEX_SLIDER) */
1083:Generated_Source\PSoC5/CapSense_CSD_CSHL.c ****                         
1084:Generated_Source\PSoC5/CapSense_CSD_CSHL.c ****                 /* Copy Signal for found centriod */
1085:Generated_Source\PSoC5/CapSense_CSD_CSHL.c ****                 #if (CapSense_CSD_IS_DIPLEX_SLIDER)
1086:Generated_Source\PSoC5/CapSense_CSD_CSHL.c ****                     CapSense_CSD_centroid[CapSense_CSD_POS] = startOfSlider[pos];
1087:Generated_Source\PSoC5/CapSense_CSD_CSHL.c ****                 #else
1088:Generated_Source\PSoC5/CapSense_CSD_CSHL.c ****                     CapSense_CSD_centroid[CapSense_CSD_POS] = startOfSlider[maximum];
 1218              		.loc 1 1088 0
 1219 0042 FB79     		ldrb	r3, [r7, #7]	@ zero_extendqisi2
 1220 0044 5B00     		lsls	r3, r3, #1
 1221 0046 BA69     		ldr	r2, [r7, #24]
 1222 0048 1344     		add	r3, r3, r2
 1223 004a 1A88     		ldrh	r2, [r3]
 1224 004c 414B     		ldr	r3, .L79+4
 1225 004e 5A80     		strh	r2, [r3, #2]	@ movhi
1089:Generated_Source\PSoC5/CapSense_CSD_CSHL.c ****                 #endif /* (CapSense_CSD_IS_DIPLEX_SLIDER) */
1090:Generated_Source\PSoC5/CapSense_CSD_CSHL.c ****                     
1091:Generated_Source\PSoC5/CapSense_CSD_CSHL.c ****                 /* Check borders for LINEAR Slider */
1092:Generated_Source\PSoC5/CapSense_CSD_CSHL.c ****                 if (maximum == 0u)                   /* Start of centroid */
 1226              		.loc 1 1092 0
 1227 0050 FB79     		ldrb	r3, [r7, #7]	@ zero_extendqisi2
 1228 0052 002B     		cmp	r3, #0
 1229 0054 0AD1     		bne	.L71
1093:Generated_Source\PSoC5/CapSense_CSD_CSHL.c ****                 { 
1094:Generated_Source\PSoC5/CapSense_CSD_CSHL.c ****                     CapSense_CSD_centroid[CapSense_CSD_POS_PREV] = 0u;
 1230              		.loc 1 1094 0
 1231 0056 3F4B     		ldr	r3, .L79+4
ARM GAS  C:\Users\holge\AppData\Local\Temp\ccfhesHk.s 			page 42


 1232 0058 0022     		movs	r2, #0
 1233 005a 1A80     		strh	r2, [r3]	@ movhi
1095:Generated_Source\PSoC5/CapSense_CSD_CSHL.c ****                     CapSense_CSD_centroid[CapSense_CSD_POS_NEXT] = startOfSlider[posNext];
 1234              		.loc 1 1095 0
 1235 005c BB7F     		ldrb	r3, [r7, #30]	@ zero_extendqisi2
 1236 005e 5B00     		lsls	r3, r3, #1
 1237 0060 BA69     		ldr	r2, [r7, #24]
 1238 0062 1344     		add	r3, r3, r2
 1239 0064 1A88     		ldrh	r2, [r3]
 1240 0066 3B4B     		ldr	r3, .L79+4
 1241 0068 9A80     		strh	r2, [r3, #4]	@ movhi
 1242 006a 1DE0     		b	.L72
 1243              	.L71:
1096:Generated_Source\PSoC5/CapSense_CSD_CSHL.c ****                 }
1097:Generated_Source\PSoC5/CapSense_CSD_CSHL.c ****                 else if (maximum == ((count) - 1u)) /* End of centroid */
 1244              		.loc 1 1097 0
 1245 006c FA79     		ldrb	r2, [r7, #7]	@ zero_extendqisi2
 1246 006e 7B79     		ldrb	r3, [r7, #5]	@ zero_extendqisi2
 1247 0070 013B     		subs	r3, r3, #1
 1248 0072 9A42     		cmp	r2, r3
 1249 0074 0AD1     		bne	.L73
1098:Generated_Source\PSoC5/CapSense_CSD_CSHL.c ****                 {
1099:Generated_Source\PSoC5/CapSense_CSD_CSHL.c ****                     CapSense_CSD_centroid[CapSense_CSD_POS_PREV] = startOfSlider[posPrev];
 1250              		.loc 1 1099 0
 1251 0076 FB7F     		ldrb	r3, [r7, #31]	@ zero_extendqisi2
 1252 0078 5B00     		lsls	r3, r3, #1
 1253 007a BA69     		ldr	r2, [r7, #24]
 1254 007c 1344     		add	r3, r3, r2
 1255 007e 1A88     		ldrh	r2, [r3]
 1256 0080 344B     		ldr	r3, .L79+4
 1257 0082 1A80     		strh	r2, [r3]	@ movhi
1100:Generated_Source\PSoC5/CapSense_CSD_CSHL.c ****                     CapSense_CSD_centroid[CapSense_CSD_POS_NEXT] = 0u;
 1258              		.loc 1 1100 0
 1259 0084 334B     		ldr	r3, .L79+4
 1260 0086 0022     		movs	r2, #0
 1261 0088 9A80     		strh	r2, [r3, #4]	@ movhi
 1262 008a 0DE0     		b	.L72
 1263              	.L73:
1101:Generated_Source\PSoC5/CapSense_CSD_CSHL.c ****                 }
1102:Generated_Source\PSoC5/CapSense_CSD_CSHL.c ****                 else                                /* Not first Not last */
1103:Generated_Source\PSoC5/CapSense_CSD_CSHL.c ****                 {
1104:Generated_Source\PSoC5/CapSense_CSD_CSHL.c ****                     CapSense_CSD_centroid[CapSense_CSD_POS_PREV] = startOfSlider[posPrev];
 1264              		.loc 1 1104 0
 1265 008c FB7F     		ldrb	r3, [r7, #31]	@ zero_extendqisi2
 1266 008e 5B00     		lsls	r3, r3, #1
 1267 0090 BA69     		ldr	r2, [r7, #24]
 1268 0092 1344     		add	r3, r3, r2
 1269 0094 1A88     		ldrh	r2, [r3]
 1270 0096 2F4B     		ldr	r3, .L79+4
 1271 0098 1A80     		strh	r2, [r3]	@ movhi
1105:Generated_Source\PSoC5/CapSense_CSD_CSHL.c ****                     CapSense_CSD_centroid[CapSense_CSD_POS_NEXT] = startOfSlider[posNext];
 1272              		.loc 1 1105 0
 1273 009a BB7F     		ldrb	r3, [r7, #30]	@ zero_extendqisi2
 1274 009c 5B00     		lsls	r3, r3, #1
 1275 009e BA69     		ldr	r2, [r7, #24]
 1276 00a0 1344     		add	r3, r3, r2
 1277 00a2 1A88     		ldrh	r2, [r3]
ARM GAS  C:\Users\holge\AppData\Local\Temp\ccfhesHk.s 			page 43


 1278 00a4 2B4B     		ldr	r3, .L79+4
 1279 00a6 9A80     		strh	r2, [r3, #4]	@ movhi
 1280              	.L72:
1106:Generated_Source\PSoC5/CapSense_CSD_CSHL.c ****                 }
1107:Generated_Source\PSoC5/CapSense_CSD_CSHL.c ****             #endif /* ((CapSense_CSD_TOTAL_LINEAR_SLIDERS_COUNT>0u)||(CapSense_CSD_TOTAL_TOUCH_PADS
1108:Generated_Source\PSoC5/CapSense_CSD_CSHL.c **** 
1109:Generated_Source\PSoC5/CapSense_CSD_CSHL.c ****         #if (CapSense_CSD_ADD_SLIDER_TYPE)
1110:Generated_Source\PSoC5/CapSense_CSD_CSHL.c ****             }
1111:Generated_Source\PSoC5/CapSense_CSD_CSHL.c ****         #endif /* (CapSense_CSD_ADD_SLIDER_TYPE) */
1112:Generated_Source\PSoC5/CapSense_CSD_CSHL.c ****     
1113:Generated_Source\PSoC5/CapSense_CSD_CSHL.c ****         /* Subtract noiseThreshold */
1114:Generated_Source\PSoC5/CapSense_CSD_CSHL.c ****         if(CapSense_CSD_centroid[CapSense_CSD_POS_PREV] > noiseThreshold)
 1281              		.loc 1 1114 0
 1282 00a8 2A4B     		ldr	r3, .L79+4
 1283 00aa 1B88     		ldrh	r3, [r3]
 1284 00ac 3A8D     		ldrh	r2, [r7, #40]
 1285 00ae 9A42     		cmp	r2, r3
 1286 00b0 07D2     		bcs	.L74
1115:Generated_Source\PSoC5/CapSense_CSD_CSHL.c ****         {
1116:Generated_Source\PSoC5/CapSense_CSD_CSHL.c ****             CapSense_CSD_centroid[CapSense_CSD_POS_PREV] -= noiseThreshold;
 1287              		.loc 1 1116 0
 1288 00b2 284B     		ldr	r3, .L79+4
 1289 00b4 1A88     		ldrh	r2, [r3]
 1290 00b6 3B8D     		ldrh	r3, [r7, #40]	@ movhi
 1291 00b8 D31A     		subs	r3, r2, r3
 1292 00ba 9AB2     		uxth	r2, r3
 1293 00bc 254B     		ldr	r3, .L79+4
 1294 00be 1A80     		strh	r2, [r3]	@ movhi
 1295 00c0 02E0     		b	.L75
 1296              	.L74:
1117:Generated_Source\PSoC5/CapSense_CSD_CSHL.c ****         }
1118:Generated_Source\PSoC5/CapSense_CSD_CSHL.c ****         else
1119:Generated_Source\PSoC5/CapSense_CSD_CSHL.c ****         {
1120:Generated_Source\PSoC5/CapSense_CSD_CSHL.c ****             CapSense_CSD_centroid[CapSense_CSD_POS_PREV] = 0u;
 1297              		.loc 1 1120 0
 1298 00c2 244B     		ldr	r3, .L79+4
 1299 00c4 0022     		movs	r2, #0
 1300 00c6 1A80     		strh	r2, [r3]	@ movhi
 1301              	.L75:
1121:Generated_Source\PSoC5/CapSense_CSD_CSHL.c ****         }
1122:Generated_Source\PSoC5/CapSense_CSD_CSHL.c ****         
1123:Generated_Source\PSoC5/CapSense_CSD_CSHL.c ****         /* Maximum always grater than fingerThreshold, so grate than noiseThreshold */
1124:Generated_Source\PSoC5/CapSense_CSD_CSHL.c ****         CapSense_CSD_centroid[CapSense_CSD_POS] -= noiseThreshold;
 1302              		.loc 1 1124 0
 1303 00c8 224B     		ldr	r3, .L79+4
 1304 00ca 5A88     		ldrh	r2, [r3, #2]
 1305 00cc 3B8D     		ldrh	r3, [r7, #40]	@ movhi
 1306 00ce D31A     		subs	r3, r2, r3
 1307 00d0 9AB2     		uxth	r2, r3
 1308 00d2 204B     		ldr	r3, .L79+4
 1309 00d4 5A80     		strh	r2, [r3, #2]	@ movhi
1125:Generated_Source\PSoC5/CapSense_CSD_CSHL.c ****         
1126:Generated_Source\PSoC5/CapSense_CSD_CSHL.c ****         /* Subtract noiseThreshold */
1127:Generated_Source\PSoC5/CapSense_CSD_CSHL.c ****         if(CapSense_CSD_centroid[CapSense_CSD_POS_NEXT] > noiseThreshold)
 1310              		.loc 1 1127 0
 1311 00d6 1F4B     		ldr	r3, .L79+4
 1312 00d8 9B88     		ldrh	r3, [r3, #4]
ARM GAS  C:\Users\holge\AppData\Local\Temp\ccfhesHk.s 			page 44


 1313 00da 3A8D     		ldrh	r2, [r7, #40]
 1314 00dc 9A42     		cmp	r2, r3
 1315 00de 07D2     		bcs	.L76
1128:Generated_Source\PSoC5/CapSense_CSD_CSHL.c ****         {
1129:Generated_Source\PSoC5/CapSense_CSD_CSHL.c ****             CapSense_CSD_centroid[CapSense_CSD_POS_NEXT] -= noiseThreshold;
 1316              		.loc 1 1129 0
 1317 00e0 1C4B     		ldr	r3, .L79+4
 1318 00e2 9A88     		ldrh	r2, [r3, #4]
 1319 00e4 3B8D     		ldrh	r3, [r7, #40]	@ movhi
 1320 00e6 D31A     		subs	r3, r2, r3
 1321 00e8 9AB2     		uxth	r2, r3
 1322 00ea 1A4B     		ldr	r3, .L79+4
 1323 00ec 9A80     		strh	r2, [r3, #4]	@ movhi
 1324 00ee 02E0     		b	.L77
 1325              	.L76:
1130:Generated_Source\PSoC5/CapSense_CSD_CSHL.c ****         }
1131:Generated_Source\PSoC5/CapSense_CSD_CSHL.c ****         else
1132:Generated_Source\PSoC5/CapSense_CSD_CSHL.c ****         {
1133:Generated_Source\PSoC5/CapSense_CSD_CSHL.c ****             CapSense_CSD_centroid[CapSense_CSD_POS_NEXT] = 0u;
 1326              		.loc 1 1133 0
 1327 00f0 184B     		ldr	r3, .L79+4
 1328 00f2 0022     		movs	r2, #0
 1329 00f4 9A80     		strh	r2, [r3, #4]	@ movhi
 1330              	.L77:
1134:Generated_Source\PSoC5/CapSense_CSD_CSHL.c ****         }
1135:Generated_Source\PSoC5/CapSense_CSD_CSHL.c ****         
1136:Generated_Source\PSoC5/CapSense_CSD_CSHL.c ****         
1137:Generated_Source\PSoC5/CapSense_CSD_CSHL.c ****         /* Si+1 - Si-1 */
1138:Generated_Source\PSoC5/CapSense_CSD_CSHL.c ****         numerator = (uint32) CapSense_CSD_centroid[CapSense_CSD_POS_NEXT] -
 1331              		.loc 1 1138 0
 1332 00f6 174B     		ldr	r3, .L79+4
 1333 00f8 9B88     		ldrh	r3, [r3, #4]
 1334 00fa 1A46     		mov	r2, r3
1139:Generated_Source\PSoC5/CapSense_CSD_CSHL.c ****                     (uint32) CapSense_CSD_centroid[CapSense_CSD_POS_PREV];
 1335              		.loc 1 1139 0
 1336 00fc 154B     		ldr	r3, .L79+4
 1337 00fe 1B88     		ldrh	r3, [r3]
1138:Generated_Source\PSoC5/CapSense_CSD_CSHL.c ****                     (uint32) CapSense_CSD_centroid[CapSense_CSD_POS_PREV];
 1338              		.loc 1 1138 0
 1339 0100 D31A     		subs	r3, r2, r3
 1340 0102 7B61     		str	r3, [r7, #20]
1140:Generated_Source\PSoC5/CapSense_CSD_CSHL.c **** 
1141:Generated_Source\PSoC5/CapSense_CSD_CSHL.c ****         /* Si+1 + Si + Si-1 */
1142:Generated_Source\PSoC5/CapSense_CSD_CSHL.c ****         denominator = (int32) CapSense_CSD_centroid[CapSense_CSD_POS_PREV] + 
 1341              		.loc 1 1142 0
 1342 0104 134B     		ldr	r3, .L79+4
 1343 0106 1B88     		ldrh	r3, [r3]
 1344 0108 1A46     		mov	r2, r3
1143:Generated_Source\PSoC5/CapSense_CSD_CSHL.c ****                       (int32) CapSense_CSD_centroid[CapSense_CSD_POS] + 
 1345              		.loc 1 1143 0
 1346 010a 124B     		ldr	r3, .L79+4
 1347 010c 5B88     		ldrh	r3, [r3, #2]
1142:Generated_Source\PSoC5/CapSense_CSD_CSHL.c ****                       (int32) CapSense_CSD_centroid[CapSense_CSD_POS] + 
 1348              		.loc 1 1142 0
 1349 010e 1344     		add	r3, r3, r2
1144:Generated_Source\PSoC5/CapSense_CSD_CSHL.c ****                       (int32) CapSense_CSD_centroid[CapSense_CSD_POS_NEXT];
 1350              		.loc 1 1144 0
ARM GAS  C:\Users\holge\AppData\Local\Temp\ccfhesHk.s 			page 45


 1351 0110 104A     		ldr	r2, .L79+4
 1352 0112 9288     		ldrh	r2, [r2, #4]
1142:Generated_Source\PSoC5/CapSense_CSD_CSHL.c ****                       (int32) CapSense_CSD_centroid[CapSense_CSD_POS] + 
 1353              		.loc 1 1142 0
 1354 0114 1344     		add	r3, r3, r2
 1355 0116 3B61     		str	r3, [r7, #16]
1145:Generated_Source\PSoC5/CapSense_CSD_CSHL.c ****         
1146:Generated_Source\PSoC5/CapSense_CSD_CSHL.c ****         /* (numerator/denominator) + maximum */
1147:Generated_Source\PSoC5/CapSense_CSD_CSHL.c ****         denominator = (((int32)(uint32)((uint32)numerator << 8u)/denominator) + (int32)(uint32)((ui
 1356              		.loc 1 1147 0
 1357 0118 7B69     		ldr	r3, [r7, #20]
 1358 011a 1B02     		lsls	r3, r3, #8
 1359 011c 1A46     		mov	r2, r3
 1360 011e 3B69     		ldr	r3, [r7, #16]
 1361 0120 92FBF3F3 		sdiv	r3, r2, r3
 1362 0124 FA79     		ldrb	r2, [r7, #7]	@ zero_extendqisi2
 1363 0126 1202     		lsls	r2, r2, #8
 1364 0128 1344     		add	r3, r3, r2
 1365 012a 3B61     		str	r3, [r7, #16]
1148:Generated_Source\PSoC5/CapSense_CSD_CSHL.c **** 
1149:Generated_Source\PSoC5/CapSense_CSD_CSHL.c ****         #if(CapSense_CSD_TOTAL_RADIAL_SLIDERS_COUNT > 0u)
1150:Generated_Source\PSoC5/CapSense_CSD_CSHL.c ****             /* Only required for RADIAL Slider */
1151:Generated_Source\PSoC5/CapSense_CSD_CSHL.c ****             if(denominator < 0)
1152:Generated_Source\PSoC5/CapSense_CSD_CSHL.c ****             {
1153:Generated_Source\PSoC5/CapSense_CSD_CSHL.c ****                 denominator += (int32)((uint16)((uint16) count << 8u));
1154:Generated_Source\PSoC5/CapSense_CSD_CSHL.c ****             }
1155:Generated_Source\PSoC5/CapSense_CSD_CSHL.c ****         #endif /* (CapSense_CSD_TOTAL_RADIAL_SLIDERS_COUNT > 0u) */
1156:Generated_Source\PSoC5/CapSense_CSD_CSHL.c **** 
1157:Generated_Source\PSoC5/CapSense_CSD_CSHL.c ****         denominator *= (int16)resolution;
 1366              		.loc 1 1157 0
 1367 012c B7F90230 		ldrsh	r3, [r7, #2]
 1368 0130 1A46     		mov	r2, r3
 1369 0132 3B69     		ldr	r3, [r7, #16]
 1370 0134 02FB03F3 		mul	r3, r2, r3
 1371 0138 3B61     		str	r3, [r7, #16]
1158:Generated_Source\PSoC5/CapSense_CSD_CSHL.c **** 
1159:Generated_Source\PSoC5/CapSense_CSD_CSHL.c ****         /* Round the relust and put it to uint8 */
1160:Generated_Source\PSoC5/CapSense_CSD_CSHL.c ****         position = ((uint8) HI16((uint32)denominator + CapSense_CSD_CENTROID_ROUND_VALUE));
 1372              		.loc 1 1160 0
 1373 013a 3B69     		ldr	r3, [r7, #16]
 1374 013c 03F5FE43 		add	r3, r3, #32512
 1375 0140 1B0C     		lsrs	r3, r3, #16
 1376 0142 FB73     		strb	r3, [r7, #15]
1161:Generated_Source\PSoC5/CapSense_CSD_CSHL.c **** 
1162:Generated_Source\PSoC5/CapSense_CSD_CSHL.c ****         return (position);
 1377              		.loc 1 1162 0
 1378 0144 FB7B     		ldrb	r3, [r7, #15]	@ zero_extendqisi2
1163:Generated_Source\PSoC5/CapSense_CSD_CSHL.c ****     }    
 1379              		.loc 1 1163 0
 1380 0146 1846     		mov	r0, r3
 1381 0148 2037     		adds	r7, r7, #32
 1382              		.cfi_def_cfa_offset 8
 1383 014a BD46     		mov	sp, r7
 1384              		.cfi_def_cfa_register 13
 1385              		@ sp needed
 1386 014c 90BC     		pop	{r4, r7}
 1387              		.cfi_restore 7
ARM GAS  C:\Users\holge\AppData\Local\Temp\ccfhesHk.s 			page 46


 1388              		.cfi_restore 4
 1389              		.cfi_def_cfa_offset 0
 1390 014e 7047     		bx	lr
 1391              	.L80:
 1392              		.align	2
 1393              	.L79:
 1394 0150 00000000 		.word	CapSense_CSD_sensorSignal
 1395 0154 04000000 		.word	CapSense_CSD_centroid.5258
 1396              		.cfi_endproc
 1397              	.LFE12:
 1398              		.size	CapSense_CSD_CalcCentroid, .-CapSense_CSD_CalcCentroid
 1399              		.section	.text.CapSense_CSD_GetCentroidPos,"ax",%progbits
 1400              		.align	2
 1401              		.global	CapSense_CSD_GetCentroidPos
 1402              		.thumb
 1403              		.thumb_func
 1404              		.type	CapSense_CSD_GetCentroidPos, %function
 1405              	CapSense_CSD_GetCentroidPos:
 1406              	.LFB13:
1164:Generated_Source\PSoC5/CapSense_CSD_CSHL.c **** #endif /* (CapSense_CSD_TOTAL_CENTROIDS_COUNT) */
1165:Generated_Source\PSoC5/CapSense_CSD_CSHL.c **** 
1166:Generated_Source\PSoC5/CapSense_CSD_CSHL.c **** 
1167:Generated_Source\PSoC5/CapSense_CSD_CSHL.c **** #if(CapSense_CSD_TOTAL_LINEAR_SLIDERS_COUNT > 0u)
1168:Generated_Source\PSoC5/CapSense_CSD_CSHL.c ****     /*******************************************************************************
1169:Generated_Source\PSoC5/CapSense_CSD_CSHL.c ****     * Function Name: CapSense_CSD_GetCentroidPos
1170:Generated_Source\PSoC5/CapSense_CSD_CSHL.c ****     ********************************************************************************
1171:Generated_Source\PSoC5/CapSense_CSD_CSHL.c ****     *
1172:Generated_Source\PSoC5/CapSense_CSD_CSHL.c ****     * Summary:
1173:Generated_Source\PSoC5/CapSense_CSD_CSHL.c ****     *  Checks the CapSense_CSD_Signal[ ] array for a centroid within
1174:Generated_Source\PSoC5/CapSense_CSD_CSHL.c ****     *  slider specified range. The centroid position is calculated to the resolution
1175:Generated_Source\PSoC5/CapSense_CSD_CSHL.c ****     *  specified in the CapSense customizer. The position filters are applied to the
1176:Generated_Source\PSoC5/CapSense_CSD_CSHL.c ****     *  result if enabled.
1177:Generated_Source\PSoC5/CapSense_CSD_CSHL.c ****     *
1178:Generated_Source\PSoC5/CapSense_CSD_CSHL.c ****     * Parameters:
1179:Generated_Source\PSoC5/CapSense_CSD_CSHL.c ****     *  widget:  Widget number.
1180:Generated_Source\PSoC5/CapSense_CSD_CSHL.c ****     *  For every linear slider widget there are defines in this format:
1181:Generated_Source\PSoC5/CapSense_CSD_CSHL.c ****     *  #define CapSense_CSD_LS__"widget_name"            5
1182:Generated_Source\PSoC5/CapSense_CSD_CSHL.c ****     * 
1183:Generated_Source\PSoC5/CapSense_CSD_CSHL.c ****     * Return:
1184:Generated_Source\PSoC5/CapSense_CSD_CSHL.c ****     *  Returns position value of the linear slider.
1185:Generated_Source\PSoC5/CapSense_CSD_CSHL.c ****     *
1186:Generated_Source\PSoC5/CapSense_CSD_CSHL.c ****     * Side Effects:
1187:Generated_Source\PSoC5/CapSense_CSD_CSHL.c ****     *  If any sensor within the slider widget is active, the function returns values
1188:Generated_Source\PSoC5/CapSense_CSD_CSHL.c ****     *  from zero to the API resolution value set in the CapSense customizer. If no
1189:Generated_Source\PSoC5/CapSense_CSD_CSHL.c ****     *  sensors are active, the function returns 0xFFFF. If an error occurs during
1190:Generated_Source\PSoC5/CapSense_CSD_CSHL.c ****     *  execution of the centroid/diplexing algorithm, the function returns 0xFFFF.
1191:Generated_Source\PSoC5/CapSense_CSD_CSHL.c ****     *  There are no checks of widget type argument provided to this function.
1192:Generated_Source\PSoC5/CapSense_CSD_CSHL.c ****     *  The unproper widget type provided will cause unexpected position calculations.
1193:Generated_Source\PSoC5/CapSense_CSD_CSHL.c ****     *
1194:Generated_Source\PSoC5/CapSense_CSD_CSHL.c ****     * Note:
1195:Generated_Source\PSoC5/CapSense_CSD_CSHL.c ****     *  If noise counts on the slider segments are greater than the noise
1196:Generated_Source\PSoC5/CapSense_CSD_CSHL.c ****     *  threshold, this subroutine may generate a false centroid result. The noise
1197:Generated_Source\PSoC5/CapSense_CSD_CSHL.c ****     *  threshold should be set carefully (high enough above the noise level) so
1198:Generated_Source\PSoC5/CapSense_CSD_CSHL.c ****     *  that noise will not generate a false centroid.
1199:Generated_Source\PSoC5/CapSense_CSD_CSHL.c ****     *
1200:Generated_Source\PSoC5/CapSense_CSD_CSHL.c ****     * Reentrant:
1201:Generated_Source\PSoC5/CapSense_CSD_CSHL.c ****     *  No.
ARM GAS  C:\Users\holge\AppData\Local\Temp\ccfhesHk.s 			page 47


1202:Generated_Source\PSoC5/CapSense_CSD_CSHL.c ****     *
1203:Generated_Source\PSoC5/CapSense_CSD_CSHL.c ****     *******************************************************************************/
1204:Generated_Source\PSoC5/CapSense_CSD_CSHL.c ****     uint16 CapSense_CSD_GetCentroidPos(uint8 widget) 
1205:Generated_Source\PSoC5/CapSense_CSD_CSHL.c ****     {
 1407              		.loc 1 1205 0
 1408              		.cfi_startproc
 1409              		@ args = 0, pretend = 0, frame = 16
 1410              		@ frame_needed = 1, uses_anonymous_args = 0
 1411 0000 90B5     		push	{r4, r7, lr}
 1412              		.cfi_def_cfa_offset 12
 1413              		.cfi_offset 4, -12
 1414              		.cfi_offset 7, -8
 1415              		.cfi_offset 14, -4
 1416 0002 87B0     		sub	sp, sp, #28
 1417              		.cfi_def_cfa_offset 40
 1418 0004 02AF     		add	r7, sp, #8
 1419              		.cfi_def_cfa 7, 32
 1420 0006 0346     		mov	r3, r0
 1421 0008 FB71     		strb	r3, [r7, #7]
1206:Generated_Source\PSoC5/CapSense_CSD_CSHL.c ****         #if (CapSense_CSD_IS_DIPLEX_SLIDER)
1207:Generated_Source\PSoC5/CapSense_CSD_CSHL.c ****             const uint8 CYCODE *diplex;
1208:Generated_Source\PSoC5/CapSense_CSD_CSHL.c ****         #endif /* (CapSense_CSD_IS_DIPLEX_SLIDER) */
1209:Generated_Source\PSoC5/CapSense_CSD_CSHL.c ****                 
1210:Generated_Source\PSoC5/CapSense_CSD_CSHL.c ****         #if (0u != CapSense_CSD_LINEAR_SLIDERS_POS_FILTERS_MASK)
1211:Generated_Source\PSoC5/CapSense_CSD_CSHL.c ****             uint8 posIndex;
1212:Generated_Source\PSoC5/CapSense_CSD_CSHL.c ****             uint8 firstTimeIndex = CapSense_CSD_posFiltersData[widget];
1213:Generated_Source\PSoC5/CapSense_CSD_CSHL.c ****             uint8 posFiltersMask = CapSense_CSD_posFiltersMask[widget];  
1214:Generated_Source\PSoC5/CapSense_CSD_CSHL.c ****         #endif /* (0u != CapSense_CSD_LINEAR_SLIDERS_POS_FILTERS_MASK) */
1215:Generated_Source\PSoC5/CapSense_CSD_CSHL.c **** 
1216:Generated_Source\PSoC5/CapSense_CSD_CSHL.c ****         #if ((0u != (CapSense_CSD_MEDIAN_FILTER & CapSense_CSD_LINEAR_SLIDERS_POS_FILTERS_MASK)) ||
1217:Generated_Source\PSoC5/CapSense_CSD_CSHL.c ****              (0u != (CapSense_CSD_AVERAGING_FILTER & CapSense_CSD_LINEAR_SLIDERS_POS_FILTERS_MASK))
1218:Generated_Source\PSoC5/CapSense_CSD_CSHL.c ****             uint8 tempPos;
1219:Generated_Source\PSoC5/CapSense_CSD_CSHL.c ****         #endif /* ((0u != (CapSense_CSD_MEDIAN_FILTER & CapSense_CSD_LINEAR_SLIDERS_POS_FILTERS_MAS
1220:Generated_Source\PSoC5/CapSense_CSD_CSHL.c ****                *   (0u != (CapSense_CSD_AVERAGING_FILTER & CapSense_CSD_LINEAR_SLIDERS_POS_FILTERS_
1221:Generated_Source\PSoC5/CapSense_CSD_CSHL.c ****                */
1222:Generated_Source\PSoC5/CapSense_CSD_CSHL.c **** 
1223:Generated_Source\PSoC5/CapSense_CSD_CSHL.c ****         uint8 maximum;
1224:Generated_Source\PSoC5/CapSense_CSD_CSHL.c ****         uint16 position;
1225:Generated_Source\PSoC5/CapSense_CSD_CSHL.c ****         uint8 offset = CapSense_CSD_rawDataIndex[widget];
 1422              		.loc 1 1225 0
 1423 000a 0023     		movs	r3, #0
 1424 000c 7B73     		strb	r3, [r7, #13]
1226:Generated_Source\PSoC5/CapSense_CSD_CSHL.c ****         uint8 count = CapSense_CSD_numberOfSensors[widget];
 1425              		.loc 1 1226 0
 1426 000e 0523     		movs	r3, #5
 1427 0010 3B73     		strb	r3, [r7, #12]
1227:Generated_Source\PSoC5/CapSense_CSD_CSHL.c ****                         
1228:Generated_Source\PSoC5/CapSense_CSD_CSHL.c ****         #if (CapSense_CSD_IS_DIPLEX_SLIDER)
1229:Generated_Source\PSoC5/CapSense_CSD_CSHL.c ****             if(widget < CapSense_CSD_TOTAL_DIPLEXED_SLIDERS_COUNT)
1230:Generated_Source\PSoC5/CapSense_CSD_CSHL.c ****             {
1231:Generated_Source\PSoC5/CapSense_CSD_CSHL.c ****                 maximum = CapSense_CSD_diplexTable[widget];
1232:Generated_Source\PSoC5/CapSense_CSD_CSHL.c ****                 diplex = &CapSense_CSD_diplexTable[maximum];
1233:Generated_Source\PSoC5/CapSense_CSD_CSHL.c ****             }
1234:Generated_Source\PSoC5/CapSense_CSD_CSHL.c ****             else
1235:Generated_Source\PSoC5/CapSense_CSD_CSHL.c ****             {
1236:Generated_Source\PSoC5/CapSense_CSD_CSHL.c ****                 diplex = 0u;
1237:Generated_Source\PSoC5/CapSense_CSD_CSHL.c ****             }
ARM GAS  C:\Users\holge\AppData\Local\Temp\ccfhesHk.s 			page 48


1238:Generated_Source\PSoC5/CapSense_CSD_CSHL.c ****         #endif /* (CapSense_CSD_IS_DIPLEX_SLIDER) */
1239:Generated_Source\PSoC5/CapSense_CSD_CSHL.c **** 
1240:Generated_Source\PSoC5/CapSense_CSD_CSHL.c ****         /* Find Maximum within centroid */      
1241:Generated_Source\PSoC5/CapSense_CSD_CSHL.c ****         #if (CapSense_CSD_IS_DIPLEX_SLIDER)        
1242:Generated_Source\PSoC5/CapSense_CSD_CSHL.c ****             maximum = CapSense_CSD_FindMaximum(offset, count, CapSense_CSD_fingerThreshold[widget],
1243:Generated_Source\PSoC5/CapSense_CSD_CSHL.c ****         #else
1244:Generated_Source\PSoC5/CapSense_CSD_CSHL.c ****             maximum = CapSense_CSD_FindMaximum(offset, count, CapSense_CSD_fingerThreshold[widget])
 1428              		.loc 1 1244 0
 1429 0012 5422     		movs	r2, #84
 1430 0014 397B     		ldrb	r1, [r7, #12]	@ zero_extendqisi2
 1431 0016 7B7B     		ldrb	r3, [r7, #13]	@ zero_extendqisi2
 1432 0018 1846     		mov	r0, r3
 1433 001a FFF7FEFF 		bl	CapSense_CSD_FindMaximum
 1434 001e 0346     		mov	r3, r0
 1435 0020 FB72     		strb	r3, [r7, #11]
1245:Generated_Source\PSoC5/CapSense_CSD_CSHL.c ****         #endif /* (CapSense_CSD_IS_DIPLEX_SLIDER) */
1246:Generated_Source\PSoC5/CapSense_CSD_CSHL.c **** 
1247:Generated_Source\PSoC5/CapSense_CSD_CSHL.c ****         if (maximum != 0xFFu)
 1436              		.loc 1 1247 0
 1437 0022 FB7A     		ldrb	r3, [r7, #11]	@ zero_extendqisi2
 1438 0024 FF2B     		cmp	r3, #255
 1439 0026 0CD0     		beq	.L82
1248:Generated_Source\PSoC5/CapSense_CSD_CSHL.c ****         {
1249:Generated_Source\PSoC5/CapSense_CSD_CSHL.c ****             /* Calculate centroid */
1250:Generated_Source\PSoC5/CapSense_CSD_CSHL.c ****             position = (uint16) CapSense_CSD_CalcCentroid(maximum, 
 1440              		.loc 1 1250 0
 1441 0028 4FF4C854 		mov	r4, #6400
 1442 002c 2A23     		movs	r3, #42
 1443 002e 3A7B     		ldrb	r2, [r7, #12]	@ zero_extendqisi2
 1444 0030 797B     		ldrb	r1, [r7, #13]	@ zero_extendqisi2
 1445 0032 F87A     		ldrb	r0, [r7, #11]	@ zero_extendqisi2
 1446 0034 0093     		str	r3, [sp]
 1447 0036 2346     		mov	r3, r4
 1448 0038 FFF7FEFF 		bl	CapSense_CSD_CalcCentroid
 1449 003c 0346     		mov	r3, r0
 1450 003e FB81     		strh	r3, [r7, #14]	@ movhi
 1451 0040 02E0     		b	.L83
 1452              	.L82:
1251:Generated_Source\PSoC5/CapSense_CSD_CSHL.c ****                          offset, count, CapSense_CSD_centroidMult[widget], CapSense_CSD_noiseThresh
1252:Generated_Source\PSoC5/CapSense_CSD_CSHL.c **** 
1253:Generated_Source\PSoC5/CapSense_CSD_CSHL.c ****             #if (0u != CapSense_CSD_LINEAR_SLIDERS_POS_FILTERS_MASK)
1254:Generated_Source\PSoC5/CapSense_CSD_CSHL.c ****                 /* Check if this linear slider has enabled filters */
1255:Generated_Source\PSoC5/CapSense_CSD_CSHL.c ****                 if (0u != (posFiltersMask & CapSense_CSD_ANY_POS_FILTER))
1256:Generated_Source\PSoC5/CapSense_CSD_CSHL.c ****                 {
1257:Generated_Source\PSoC5/CapSense_CSD_CSHL.c ****                     /* Caluclate position to store filters data */
1258:Generated_Source\PSoC5/CapSense_CSD_CSHL.c ****                     posIndex  = firstTimeIndex + 1u;
1259:Generated_Source\PSoC5/CapSense_CSD_CSHL.c ****                     
1260:Generated_Source\PSoC5/CapSense_CSD_CSHL.c ****                     if (0u == CapSense_CSD_posFiltersData[firstTimeIndex])
1261:Generated_Source\PSoC5/CapSense_CSD_CSHL.c ****                     {
1262:Generated_Source\PSoC5/CapSense_CSD_CSHL.c ****                         /* Init filters */
1263:Generated_Source\PSoC5/CapSense_CSD_CSHL.c ****                         CapSense_CSD_posFiltersData[posIndex] = (uint8) position;
1264:Generated_Source\PSoC5/CapSense_CSD_CSHL.c ****                         #if ((0u != (CapSense_CSD_MEDIAN_FILTER & \
1265:Generated_Source\PSoC5/CapSense_CSD_CSHL.c ****                                      CapSense_CSD_LINEAR_SLIDERS_POS_FILTERS_MASK)) || \
1266:Generated_Source\PSoC5/CapSense_CSD_CSHL.c ****                              (0u != (CapSense_CSD_AVERAGING_FILTER & \
1267:Generated_Source\PSoC5/CapSense_CSD_CSHL.c ****                                      CapSense_CSD_LINEAR_SLIDERS_POS_FILTERS_MASK)))
1268:Generated_Source\PSoC5/CapSense_CSD_CSHL.c **** 
1269:Generated_Source\PSoC5/CapSense_CSD_CSHL.c ****                             if ( (0u != (posFiltersMask & CapSense_CSD_MEDIAN_FILTER)) || 
ARM GAS  C:\Users\holge\AppData\Local\Temp\ccfhesHk.s 			page 49


1270:Generated_Source\PSoC5/CapSense_CSD_CSHL.c ****                                  (0u != (posFiltersMask & CapSense_CSD_AVERAGING_FILTER)) )
1271:Generated_Source\PSoC5/CapSense_CSD_CSHL.c ****                             {
1272:Generated_Source\PSoC5/CapSense_CSD_CSHL.c ****                                 CapSense_CSD_posFiltersData[posIndex + 1u] = (uint8) position;
1273:Generated_Source\PSoC5/CapSense_CSD_CSHL.c ****                             }
1274:Generated_Source\PSoC5/CapSense_CSD_CSHL.c ****                         #endif /* ((0u != (CapSense_CSD_MEDIAN_FILTER & \
1275:Generated_Source\PSoC5/CapSense_CSD_CSHL.c ****                                *           CapSense_CSD_LINEAR_SLIDERS_POS_FILTERS_MASK)) || \
1276:Generated_Source\PSoC5/CapSense_CSD_CSHL.c ****                                *   (0u != (CapSense_CSD_AVERAGING_FILTER & \
1277:Generated_Source\PSoC5/CapSense_CSD_CSHL.c ****                                *           CapSense_CSD_LINEAR_SLIDERS_POS_FILTERS_MASK)))
1278:Generated_Source\PSoC5/CapSense_CSD_CSHL.c ****                                */
1279:Generated_Source\PSoC5/CapSense_CSD_CSHL.c ****                         
1280:Generated_Source\PSoC5/CapSense_CSD_CSHL.c ****                         CapSense_CSD_posFiltersData[firstTimeIndex] = 1u;
1281:Generated_Source\PSoC5/CapSense_CSD_CSHL.c ****                     }
1282:Generated_Source\PSoC5/CapSense_CSD_CSHL.c ****                     else
1283:Generated_Source\PSoC5/CapSense_CSD_CSHL.c ****                     {
1284:Generated_Source\PSoC5/CapSense_CSD_CSHL.c ****                         /* Do filtering */
1285:Generated_Source\PSoC5/CapSense_CSD_CSHL.c ****                         #if (0u != (CapSense_CSD_MEDIAN_FILTER & CapSense_CSD_LINEAR_SLIDERS_POS_FI
1286:Generated_Source\PSoC5/CapSense_CSD_CSHL.c ****                             if (0u != (posFiltersMask & CapSense_CSD_MEDIAN_FILTER))
1287:Generated_Source\PSoC5/CapSense_CSD_CSHL.c ****                             {
1288:Generated_Source\PSoC5/CapSense_CSD_CSHL.c ****                                 tempPos = (uint8) position;
1289:Generated_Source\PSoC5/CapSense_CSD_CSHL.c ****                                 position = CapSense_CSD_MedianFilter(position,
1290:Generated_Source\PSoC5/CapSense_CSD_CSHL.c ****                                                                 (uint16)CapSense_CSD_posFiltersData
1291:Generated_Source\PSoC5/CapSense_CSD_CSHL.c ****                                                                 (uint16)CapSense_CSD_posFiltersData
1292:Generated_Source\PSoC5/CapSense_CSD_CSHL.c ****                                 CapSense_CSD_posFiltersData[posIndex + 1u] =
1293:Generated_Source\PSoC5/CapSense_CSD_CSHL.c ****                                                                              CapSense_CSD_posFilter
1294:Generated_Source\PSoC5/CapSense_CSD_CSHL.c ****                                 CapSense_CSD_posFiltersData[posIndex] = tempPos;
1295:Generated_Source\PSoC5/CapSense_CSD_CSHL.c ****                             }
1296:Generated_Source\PSoC5/CapSense_CSD_CSHL.c ****                         #endif /*(0u != (CapSense_CSD_MEDIAN_FILTER &
1297:Generated_Source\PSoC5/CapSense_CSD_CSHL.c ****                                *         CapSense_CSD_LINEAR_SLIDERS_POS_FILTERS_MASK))
1298:Generated_Source\PSoC5/CapSense_CSD_CSHL.c ****                                */
1299:Generated_Source\PSoC5/CapSense_CSD_CSHL.c **** 
1300:Generated_Source\PSoC5/CapSense_CSD_CSHL.c ****                         #if(0u!=(CapSense_CSD_AVERAGING_FILTER & CapSense_CSD_LINEAR_SLIDERS_POS_FI
1301:Generated_Source\PSoC5/CapSense_CSD_CSHL.c ****                             if (0u != (posFiltersMask & CapSense_CSD_AVERAGING_FILTER)) 
1302:Generated_Source\PSoC5/CapSense_CSD_CSHL.c ****                             {
1303:Generated_Source\PSoC5/CapSense_CSD_CSHL.c ****                                 tempPos = (uint8) position;
1304:Generated_Source\PSoC5/CapSense_CSD_CSHL.c ****                                 position = CapSense_CSD_AveragingFilter(position,
1305:Generated_Source\PSoC5/CapSense_CSD_CSHL.c ****                                                                 (uint16)CapSense_CSD_posFiltersData
1306:Generated_Source\PSoC5/CapSense_CSD_CSHL.c ****                                                                 (uint16)CapSense_CSD_posFiltersData
1307:Generated_Source\PSoC5/CapSense_CSD_CSHL.c ****                                 CapSense_CSD_posFiltersData[posIndex+1u]=CapSense_CSD_posFiltersDat
1308:Generated_Source\PSoC5/CapSense_CSD_CSHL.c ****                                 CapSense_CSD_posFiltersData[posIndex] = tempPos;
1309:Generated_Source\PSoC5/CapSense_CSD_CSHL.c ****                             }
1310:Generated_Source\PSoC5/CapSense_CSD_CSHL.c ****                         #endif /* (0u != (CapSense_CSD_AVERAGING_FILTER & \
1311:Generated_Source\PSoC5/CapSense_CSD_CSHL.c ****                                *           CapSense_CSD_LINEAR_SLIDERS_POS_FILTERS_MASK))
1312:Generated_Source\PSoC5/CapSense_CSD_CSHL.c ****                                */
1313:Generated_Source\PSoC5/CapSense_CSD_CSHL.c **** 
1314:Generated_Source\PSoC5/CapSense_CSD_CSHL.c ****                         #if (0u != (CapSense_CSD_IIR2_FILTER & CapSense_CSD_LINEAR_SLIDERS_POS_FILT
1315:Generated_Source\PSoC5/CapSense_CSD_CSHL.c ****                             if (0u != (posFiltersMask & CapSense_CSD_IIR2_FILTER)) 
1316:Generated_Source\PSoC5/CapSense_CSD_CSHL.c ****                             {
1317:Generated_Source\PSoC5/CapSense_CSD_CSHL.c ****                                 position = CapSense_CSD_IIR2Filter(position,
1318:Generated_Source\PSoC5/CapSense_CSD_CSHL.c ****                                                                     (uint16)CapSense_CSD_posFilters
1319:Generated_Source\PSoC5/CapSense_CSD_CSHL.c ****                                 CapSense_CSD_posFiltersData[posIndex] = (uint8) position;
1320:Generated_Source\PSoC5/CapSense_CSD_CSHL.c ****                             }
1321:Generated_Source\PSoC5/CapSense_CSD_CSHL.c ****                         #endif /* (0u != (CapSense_CSD_IIR2_FILTER & \
1322:Generated_Source\PSoC5/CapSense_CSD_CSHL.c ****                                *          CapSense_CSD_LINEAR_SLIDERS_POS_FILTERS_MASK))
1323:Generated_Source\PSoC5/CapSense_CSD_CSHL.c ****                                */
1324:Generated_Source\PSoC5/CapSense_CSD_CSHL.c **** 
1325:Generated_Source\PSoC5/CapSense_CSD_CSHL.c ****                         #if (0u != (CapSense_CSD_IIR4_FILTER & CapSense_CSD_LINEAR_SLIDERS_POS_FILT
1326:Generated_Source\PSoC5/CapSense_CSD_CSHL.c ****                             if (0u != (posFiltersMask & CapSense_CSD_IIR4_FILTER))
ARM GAS  C:\Users\holge\AppData\Local\Temp\ccfhesHk.s 			page 50


1327:Generated_Source\PSoC5/CapSense_CSD_CSHL.c ****                             {
1328:Generated_Source\PSoC5/CapSense_CSD_CSHL.c ****                                 position = CapSense_CSD_IIR4Filter(position,
1329:Generated_Source\PSoC5/CapSense_CSD_CSHL.c ****                                                                     (uint16)CapSense_CSD_posFilters
1330:Generated_Source\PSoC5/CapSense_CSD_CSHL.c ****                                 CapSense_CSD_posFiltersData[posIndex] = (uint8) position;
1331:Generated_Source\PSoC5/CapSense_CSD_CSHL.c ****                             }                                
1332:Generated_Source\PSoC5/CapSense_CSD_CSHL.c ****                         #endif /* (0u != (CapSense_CSD_IIR4_FILTER & \
1333:Generated_Source\PSoC5/CapSense_CSD_CSHL.c ****                                *          CapSense_CSD_LINEAR_SLIDERS_POS_FILTERS_MASK))
1334:Generated_Source\PSoC5/CapSense_CSD_CSHL.c ****                                */
1335:Generated_Source\PSoC5/CapSense_CSD_CSHL.c **** 
1336:Generated_Source\PSoC5/CapSense_CSD_CSHL.c ****                         #if (0u != (CapSense_CSD_JITTER_FILTER & CapSense_CSD_LINEAR_SLIDERS_POS_FI
1337:Generated_Source\PSoC5/CapSense_CSD_CSHL.c ****                             if (0u != (posFiltersMask & CapSense_CSD_JITTER_FILTER))
1338:Generated_Source\PSoC5/CapSense_CSD_CSHL.c ****                             {
1339:Generated_Source\PSoC5/CapSense_CSD_CSHL.c ****                                 position = CapSense_CSD_JitterFilter(position,
1340:Generated_Source\PSoC5/CapSense_CSD_CSHL.c ****                                                                     (uint16)CapSense_CSD_posFilters
1341:Generated_Source\PSoC5/CapSense_CSD_CSHL.c ****                                 CapSense_CSD_posFiltersData[posIndex] = (uint8) position;
1342:Generated_Source\PSoC5/CapSense_CSD_CSHL.c ****                             }
1343:Generated_Source\PSoC5/CapSense_CSD_CSHL.c ****                         #endif /* (0u != (CapSense_CSD_JITTER_FILTER & \
1344:Generated_Source\PSoC5/CapSense_CSD_CSHL.c ****                                *           CapSense_CSD_LINEAR_SLIDERS_POS_FILTERS_MASK))
1345:Generated_Source\PSoC5/CapSense_CSD_CSHL.c ****                                */
1346:Generated_Source\PSoC5/CapSense_CSD_CSHL.c ****                     }
1347:Generated_Source\PSoC5/CapSense_CSD_CSHL.c ****                 }
1348:Generated_Source\PSoC5/CapSense_CSD_CSHL.c ****             #endif /* (0u != CapSense_CSD_LINEAR_SLIDERS_POS_FILTERS_MASK) */
1349:Generated_Source\PSoC5/CapSense_CSD_CSHL.c **** 
1350:Generated_Source\PSoC5/CapSense_CSD_CSHL.c ****         }
1351:Generated_Source\PSoC5/CapSense_CSD_CSHL.c ****         else
1352:Generated_Source\PSoC5/CapSense_CSD_CSHL.c ****         {
1353:Generated_Source\PSoC5/CapSense_CSD_CSHL.c ****             /* The maximum wasn't found */
1354:Generated_Source\PSoC5/CapSense_CSD_CSHL.c ****             position = 0xFFFFu;
 1453              		.loc 1 1354 0
 1454 0042 4FF6FF73 		movw	r3, #65535
 1455 0046 FB81     		strh	r3, [r7, #14]	@ movhi
 1456              	.L83:
1355:Generated_Source\PSoC5/CapSense_CSD_CSHL.c **** 
1356:Generated_Source\PSoC5/CapSense_CSD_CSHL.c ****             #if(0u != CapSense_CSD_LINEAR_SLIDERS_POS_FILTERS_MASK)
1357:Generated_Source\PSoC5/CapSense_CSD_CSHL.c ****                 /* Reset the filters */
1358:Generated_Source\PSoC5/CapSense_CSD_CSHL.c ****                 if(0u != (posFiltersMask & CapSense_CSD_ANY_POS_FILTER))
1359:Generated_Source\PSoC5/CapSense_CSD_CSHL.c ****                 {
1360:Generated_Source\PSoC5/CapSense_CSD_CSHL.c ****                     CapSense_CSD_posFiltersData[firstTimeIndex] = 0u;
1361:Generated_Source\PSoC5/CapSense_CSD_CSHL.c ****                 }
1362:Generated_Source\PSoC5/CapSense_CSD_CSHL.c ****             #endif /* (0u != CapSense_CSD_LINEAR_SLIDERS_POS_FILTERS_MASK) */
1363:Generated_Source\PSoC5/CapSense_CSD_CSHL.c ****         }
1364:Generated_Source\PSoC5/CapSense_CSD_CSHL.c **** 
1365:Generated_Source\PSoC5/CapSense_CSD_CSHL.c ****         
1366:Generated_Source\PSoC5/CapSense_CSD_CSHL.c ****         return (position);
 1457              		.loc 1 1366 0
 1458 0048 FB89     		ldrh	r3, [r7, #14]
1367:Generated_Source\PSoC5/CapSense_CSD_CSHL.c ****     }
 1459              		.loc 1 1367 0
 1460 004a 1846     		mov	r0, r3
 1461 004c 1437     		adds	r7, r7, #20
 1462              		.cfi_def_cfa_offset 12
 1463 004e BD46     		mov	sp, r7
 1464              		.cfi_def_cfa_register 13
 1465              		@ sp needed
 1466 0050 90BD     		pop	{r4, r7, pc}
 1467              		.cfi_endproc
 1468              	.LFE13:
ARM GAS  C:\Users\holge\AppData\Local\Temp\ccfhesHk.s 			page 51


 1469              		.size	CapSense_CSD_GetCentroidPos, .-CapSense_CSD_GetCentroidPos
 1470 0052 00BF     		.bss
 1471 0001 000000   		.align	2
 1472              	CapSense_CSD_centroid.5258:
 1473 0004 00000000 		.space	6
 1473      0000
 1474              		.text
 1475              	.Letext0:
 1476              		.file 2 "Generated_Source\\PSoC5\\cytypes.h"
 1477              		.file 3 "Generated_Source\\PSoC5\\CapSense_CSD.h"
 1478              		.file 4 "Generated_Source\\PSoC5\\CapSense_CSD_CSHL.h"