ARM GAS  C:\Users\holge\AppData\Local\Temp\cct7z6KW.s 			page 1


   1              		.syntax unified
   2              		.cpu cortex-m3
   3              		.fpu softvfp
   4              		.eabi_attribute 20, 1
   5              		.eabi_attribute 21, 1
   6              		.eabi_attribute 23, 3
   7              		.eabi_attribute 24, 1
   8              		.eabi_attribute 25, 1
   9              		.eabi_attribute 26, 1
  10              		.eabi_attribute 30, 1
  11              		.eabi_attribute 34, 1
  12              		.eabi_attribute 18, 4
  13              		.thumb
  14              		.syntax unified
  15              		.file	"main.c"
  16              		.text
  17              	.Ltext0:
  18              		.cfi_sections	.debug_frame
  19              		.section	.text.Pin_SW2_Handler,"ax",%progbits
  20              		.align	2
  21              		.global	Pin_SW2_Handler
  22              		.thumb
  23              		.thumb_func
  24              		.type	Pin_SW2_Handler, %function
  25              	Pin_SW2_Handler:
  26              	.LFB63:
  27              		.file 1 "main.c"
   1:main.c        **** /* ========================================
   2:main.c        ****  *
   3:main.c        ****  * Copyright YOUR COMPANY, THE YEAR
   4:main.c        ****  * All Rights Reserved
   5:main.c        ****  * UNPUBLISHED, LICENSED SOFTWARE.
   6:main.c        ****  *
   7:main.c        ****  * CONFIDENTIAL AND PROPRIETARY INFORMATION
   8:main.c        ****  * WHICH IS THE PROPERTY OF your company.
   9:main.c        ****  *
  10:main.c        ****  * ========================================
  11:main.c        **** */
  12:main.c        **** #include "project.h"
  13:main.c        **** 
  14:main.c        **** CY_ISR(Pin_SW2_Handler)
  15:main.c        **** {
  28              		.loc 1 15 0
  29              		.cfi_startproc
  30              		@ args = 0, pretend = 0, frame = 0
  31              		@ frame_needed = 0, uses_anonymous_args = 0
  32 0000 08B5     		push	{r3, lr}
  33              		.cfi_def_cfa_offset 8
  34              		.cfi_offset 3, -8
  35              		.cfi_offset 14, -4
  16:main.c        ****     Pin_Red_Write( ~ Pin_Red_Read());
  36              		.loc 1 16 0
  37 0002 FFF7FEFF 		bl	Pin_Red_Read
  38              	.LVL0:
  39 0006 C043     		mvns	r0, r0
  40 0008 C0B2     		uxtb	r0, r0
  41 000a FFF7FEFF 		bl	Pin_Red_Write
ARM GAS  C:\Users\holge\AppData\Local\Temp\cct7z6KW.s 			page 2


  42              	.LVL1:
  17:main.c        ****     Pin_SW2_ClearInterrupt();
  43              		.loc 1 17 0
  44 000e FFF7FEFF 		bl	Pin_SW2_ClearInterrupt
  45              	.LVL2:
  46 0012 08BD     		pop	{r3, pc}
  47              		.cfi_endproc
  48              	.LFE63:
  49              		.size	Pin_SW2_Handler, .-Pin_SW2_Handler
  50              		.section	.text.main,"ax",%progbits
  51              		.align	2
  52              		.global	main
  53              		.thumb
  54              		.thumb_func
  55              		.type	main, %function
  56              	main:
  57              	.LFB64:
  18:main.c        **** }
  19:main.c        **** 
  20:main.c        **** int main(void)
  21:main.c        **** {
  58              		.loc 1 21 0
  59              		.cfi_startproc
  60              		@ Volatile: function does not return.
  61              		@ args = 0, pretend = 0, frame = 0
  62              		@ frame_needed = 0, uses_anonymous_args = 0
  63 0000 08B5     		push	{r3, lr}
  64              		.cfi_def_cfa_offset 8
  65              		.cfi_offset 3, -8
  66              		.cfi_offset 14, -4
  22:main.c        ****     CyGlobalIntEnable; /* Enable global interrupts. */
  67              		.loc 1 22 0
  68              		.syntax unified
  69              	@ 22 "main.c" 1
  70 0002 62B6     		CPSIE   i
  71              	@ 0 "" 2
  23:main.c        **** 
  24:main.c        ****     /* Place your initialization/startup code here (e.g. MyInst_Start()) */
  25:main.c        ****     Pin_SW2_Int_StartEx(Pin_SW2_Handler);
  72              		.loc 1 25 0
  73              		.thumb
  74              		.syntax unified
  75 0004 0648     		ldr	r0, .L6
  76 0006 FFF7FEFF 		bl	Pin_SW2_Int_StartEx
  77              	.LVL3:
  78              	.L4:
  26:main.c        ****     
  27:main.c        ****     for(;;)
  28:main.c        ****     {
  29:main.c        ****         /* Place your application code here. */
  30:main.c        ****         Pin_Yellow_Write( ~ Pin_Yellow_Read());
  79              		.loc 1 30 0 discriminator 1
  80 000a FFF7FEFF 		bl	Pin_Yellow_Read
  81              	.LVL4:
  82 000e C043     		mvns	r0, r0
  83 0010 C0B2     		uxtb	r0, r0
  84 0012 FFF7FEFF 		bl	Pin_Yellow_Write
ARM GAS  C:\Users\holge\AppData\Local\Temp\cct7z6KW.s 			page 3


  85              	.LVL5:
  31:main.c        ****         CyDelay(1000);
  86              		.loc 1 31 0 discriminator 1
  87 0016 4FF47A70 		mov	r0, #1000
  88 001a FFF7FEFF 		bl	CyDelay
  89              	.LVL6:
  90 001e F4E7     		b	.L4
  91              	.L7:
  92              		.align	2
  93              	.L6:
  94 0020 00000000 		.word	Pin_SW2_Handler
  95              		.cfi_endproc
  96              	.LFE64:
  97              		.size	main, .-main
  98              		.text
  99              	.Letext0:
 100              		.file 2 "c:\\program files (x86)\\cypress\\psoc creator\\4.2\\psoc creator\\import\\gnu\\arm\\5.4.
 101              		.file 3 "c:\\program files (x86)\\cypress\\psoc creator\\4.2\\psoc creator\\import\\gnu\\arm\\5.4.
 102              		.file 4 "Generated_Source\\PSoC5/Pin_Red.h"
 103              		.file 5 "Generated_Source\\PSoC5/Pin_SW2.h"
 104              		.file 6 "Generated_Source\\PSoC5/Pin_SW2_Int.h"
 105              		.file 7 "Generated_Source\\PSoC5/Pin_Yellow.h"
 106              		.file 8 "Generated_Source\\PSoC5/CyLib.h"
 107              		.file 9 "Generated_Source\\PSoC5/core_cm3.h"