ARM GAS  C:\Users\holge\AppData\Local\Temp\ccXKJRa1.s 			page 1


   1              		.syntax unified
   2              		.cpu cortex-m3
   3              		.fpu softvfp
   4              		.eabi_attribute 20, 1
   5              		.eabi_attribute 21, 1
   6              		.eabi_attribute 23, 3
   7              		.eabi_attribute 24, 1
   8              		.eabi_attribute 25, 1
   9              		.eabi_attribute 26, 1
  10              		.eabi_attribute 30, 1
  11              		.eabi_attribute 34, 1
  12              		.eabi_attribute 18, 4
  13              		.thumb
  14              		.syntax unified
  15              		.file	"CapSense_1_CSHL.c"
  16              		.text
  17              	.Ltext0:
  18              		.cfi_sections	.debug_frame
  19              		.section	.text.CapSense_1_BaseInit,"ax",%progbits
  20              		.align	2
  21              		.global	CapSense_1_BaseInit
  22              		.thumb
  23              		.thumb_func
  24              		.type	CapSense_1_BaseInit, %function
  25              	CapSense_1_BaseInit:
  26              	.LFB0:
  27              		.file 1 "Generated_Source\\PSoC5\\CapSense_1_CSHL.c"
   1:Generated_Source\PSoC5/CapSense_1_CSHL.c **** /*******************************************************************************
   2:Generated_Source\PSoC5/CapSense_1_CSHL.c **** * File Name: CapSense_1_CSHL.c
   3:Generated_Source\PSoC5/CapSense_1_CSHL.c **** * Version 3.50
   4:Generated_Source\PSoC5/CapSense_1_CSHL.c **** *
   5:Generated_Source\PSoC5/CapSense_1_CSHL.c **** * Description:
   6:Generated_Source\PSoC5/CapSense_1_CSHL.c **** *  This file provides the source code to the High Level APIs for the CapSesne
   7:Generated_Source\PSoC5/CapSense_1_CSHL.c **** *  CSD component.
   8:Generated_Source\PSoC5/CapSense_1_CSHL.c **** *
   9:Generated_Source\PSoC5/CapSense_1_CSHL.c **** * Note:
  10:Generated_Source\PSoC5/CapSense_1_CSHL.c **** *
  11:Generated_Source\PSoC5/CapSense_1_CSHL.c **** ********************************************************************************
  12:Generated_Source\PSoC5/CapSense_1_CSHL.c **** * Copyright 2008-2013, Cypress Semiconductor Corporation.  All rights reserved.
  13:Generated_Source\PSoC5/CapSense_1_CSHL.c **** * You may use this file only in accordance with the license, terms, conditions,
  14:Generated_Source\PSoC5/CapSense_1_CSHL.c **** * disclaimers, and limitations in the end user license agreement accompanying
  15:Generated_Source\PSoC5/CapSense_1_CSHL.c **** * the software package with which this file was provided.
  16:Generated_Source\PSoC5/CapSense_1_CSHL.c **** *******************************************************************************/
  17:Generated_Source\PSoC5/CapSense_1_CSHL.c **** 
  18:Generated_Source\PSoC5/CapSense_1_CSHL.c **** #include "CapSense_1_CSHL.h"
  19:Generated_Source\PSoC5/CapSense_1_CSHL.c **** 
  20:Generated_Source\PSoC5/CapSense_1_CSHL.c **** /* Storage of filters data */
  21:Generated_Source\PSoC5/CapSense_1_CSHL.c **** #if ( (CapSense_1_RAW_FILTER_MASK & CapSense_1_MEDIAN_FILTER) | \
  22:Generated_Source\PSoC5/CapSense_1_CSHL.c ****       (CapSense_1_RAW_FILTER_MASK & CapSense_1_AVERAGING_FILTER) )
  23:Generated_Source\PSoC5/CapSense_1_CSHL.c **** 
  24:Generated_Source\PSoC5/CapSense_1_CSHL.c ****     uint16 CapSense_1_rawFilterData1[CapSense_1_TOTAL_SENSOR_COUNT];
  25:Generated_Source\PSoC5/CapSense_1_CSHL.c ****     uint16 CapSense_1_rawFilterData2[CapSense_1_TOTAL_SENSOR_COUNT];
  26:Generated_Source\PSoC5/CapSense_1_CSHL.c **** 
  27:Generated_Source\PSoC5/CapSense_1_CSHL.c **** #elif ( (CapSense_1_RAW_FILTER_MASK & CapSense_1_IIR2_FILTER)   | \
  28:Generated_Source\PSoC5/CapSense_1_CSHL.c ****         (CapSense_1_RAW_FILTER_MASK & CapSense_1_IIR4_FILTER)   | \
  29:Generated_Source\PSoC5/CapSense_1_CSHL.c ****         (CapSense_1_RAW_FILTER_MASK & CapSense_1_JITTER_FILTER) | \
  30:Generated_Source\PSoC5/CapSense_1_CSHL.c ****         (CapSense_1_RAW_FILTER_MASK & CapSense_1_IIR8_FILTER)   | \
ARM GAS  C:\Users\holge\AppData\Local\Temp\ccXKJRa1.s 			page 2


  31:Generated_Source\PSoC5/CapSense_1_CSHL.c ****         (CapSense_1_RAW_FILTER_MASK & CapSense_1_IIR16_FILTER) )
  32:Generated_Source\PSoC5/CapSense_1_CSHL.c ****         
  33:Generated_Source\PSoC5/CapSense_1_CSHL.c ****     uint16 CapSense_1_rawFilterData1[CapSense_1_TOTAL_SENSOR_COUNT];
  34:Generated_Source\PSoC5/CapSense_1_CSHL.c **** 
  35:Generated_Source\PSoC5/CapSense_1_CSHL.c **** #else
  36:Generated_Source\PSoC5/CapSense_1_CSHL.c ****     /* No Raw filters */
  37:Generated_Source\PSoC5/CapSense_1_CSHL.c **** #endif  /* ( (CapSense_1_RAW_FILTER_MASK & CapSense_1_MEDIAN_FILTER) || \
  38:Generated_Source\PSoC5/CapSense_1_CSHL.c ****         *    (CapSense_1_RAW_FILTER_MASK & CapSense_1_AVERAGING_FILTER) )
  39:Generated_Source\PSoC5/CapSense_1_CSHL.c ****         */
  40:Generated_Source\PSoC5/CapSense_1_CSHL.c **** 
  41:Generated_Source\PSoC5/CapSense_1_CSHL.c **** uint16 CapSense_1_sensorBaseline[CapSense_1_TOTAL_SENSOR_COUNT];
  42:Generated_Source\PSoC5/CapSense_1_CSHL.c **** uint8 CapSense_1_sensorBaselineLow[CapSense_1_TOTAL_SENSOR_COUNT];
  43:Generated_Source\PSoC5/CapSense_1_CSHL.c **** uint8 CapSense_1_sensorSignal[CapSense_1_TOTAL_SENSOR_COUNT];
  44:Generated_Source\PSoC5/CapSense_1_CSHL.c **** uint8 CapSense_1_sensorOnMask[(((CapSense_1_TOTAL_SENSOR_COUNT - 1u) / 8u) + 1u)];
  45:Generated_Source\PSoC5/CapSense_1_CSHL.c **** 
  46:Generated_Source\PSoC5/CapSense_1_CSHL.c **** uint8 CapSense_1_lowBaselineResetCnt[CapSense_1_TOTAL_SENSOR_COUNT];
  47:Generated_Source\PSoC5/CapSense_1_CSHL.c **** 
  48:Generated_Source\PSoC5/CapSense_1_CSHL.c **** const uint8 CYCODE CapSense_1_fingerThreshold[] = {
  49:Generated_Source\PSoC5/CapSense_1_CSHL.c ****     100u, 
  50:Generated_Source\PSoC5/CapSense_1_CSHL.c **** };
  51:Generated_Source\PSoC5/CapSense_1_CSHL.c **** 
  52:Generated_Source\PSoC5/CapSense_1_CSHL.c **** const uint8 CYCODE CapSense_1_noiseThreshold[] = {
  53:Generated_Source\PSoC5/CapSense_1_CSHL.c ****     20u, 
  54:Generated_Source\PSoC5/CapSense_1_CSHL.c **** };
  55:Generated_Source\PSoC5/CapSense_1_CSHL.c **** 
  56:Generated_Source\PSoC5/CapSense_1_CSHL.c **** const uint8 CYCODE CapSense_1_hysteresis[] = {
  57:Generated_Source\PSoC5/CapSense_1_CSHL.c ****     0u, 
  58:Generated_Source\PSoC5/CapSense_1_CSHL.c **** };
  59:Generated_Source\PSoC5/CapSense_1_CSHL.c **** 
  60:Generated_Source\PSoC5/CapSense_1_CSHL.c **** const uint8 CYCODE CapSense_1_debounce[] = {
  61:Generated_Source\PSoC5/CapSense_1_CSHL.c ****     1u, 
  62:Generated_Source\PSoC5/CapSense_1_CSHL.c **** };
  63:Generated_Source\PSoC5/CapSense_1_CSHL.c **** 
  64:Generated_Source\PSoC5/CapSense_1_CSHL.c **** uint8 CapSense_1_debounceCounter[] = {
  65:Generated_Source\PSoC5/CapSense_1_CSHL.c ****     0u, 
  66:Generated_Source\PSoC5/CapSense_1_CSHL.c **** };
  67:Generated_Source\PSoC5/CapSense_1_CSHL.c **** 
  68:Generated_Source\PSoC5/CapSense_1_CSHL.c **** const uint8 CYCODE CapSense_1_rawDataIndex[] = {
  69:Generated_Source\PSoC5/CapSense_1_CSHL.c ****     0u, /* LinearSlider0__LS */
  70:Generated_Source\PSoC5/CapSense_1_CSHL.c **** 
  71:Generated_Source\PSoC5/CapSense_1_CSHL.c **** };
  72:Generated_Source\PSoC5/CapSense_1_CSHL.c **** 
  73:Generated_Source\PSoC5/CapSense_1_CSHL.c **** const uint8 CYCODE CapSense_1_numberOfSensors[] = {
  74:Generated_Source\PSoC5/CapSense_1_CSHL.c ****     5u, /* LinearSlider0__LS */
  75:Generated_Source\PSoC5/CapSense_1_CSHL.c **** 
  76:Generated_Source\PSoC5/CapSense_1_CSHL.c **** };
  77:Generated_Source\PSoC5/CapSense_1_CSHL.c **** 
  78:Generated_Source\PSoC5/CapSense_1_CSHL.c **** const uint16 CYCODE CapSense_1_centroidMult[] = {
  79:Generated_Source\PSoC5/CapSense_1_CSHL.c ****     6400u, 
  80:Generated_Source\PSoC5/CapSense_1_CSHL.c **** };
  81:Generated_Source\PSoC5/CapSense_1_CSHL.c **** 
  82:Generated_Source\PSoC5/CapSense_1_CSHL.c **** const uint8 CYCODE CapSense_1_posFiltersMask[] = {
  83:Generated_Source\PSoC5/CapSense_1_CSHL.c ****     0x8u, 
  84:Generated_Source\PSoC5/CapSense_1_CSHL.c **** };
  85:Generated_Source\PSoC5/CapSense_1_CSHL.c **** 
  86:Generated_Source\PSoC5/CapSense_1_CSHL.c **** uint8 CapSense_1_posFiltersData[] = {
  87:Generated_Source\PSoC5/CapSense_1_CSHL.c ****     1u, 0u, 0u, 
ARM GAS  C:\Users\holge\AppData\Local\Temp\ccXKJRa1.s 			page 3


  88:Generated_Source\PSoC5/CapSense_1_CSHL.c **** };
  89:Generated_Source\PSoC5/CapSense_1_CSHL.c **** 
  90:Generated_Source\PSoC5/CapSense_1_CSHL.c **** 
  91:Generated_Source\PSoC5/CapSense_1_CSHL.c **** 
  92:Generated_Source\PSoC5/CapSense_1_CSHL.c **** 
  93:Generated_Source\PSoC5/CapSense_1_CSHL.c **** /*******************************************************************************
  94:Generated_Source\PSoC5/CapSense_1_CSHL.c **** * Function Name: CapSense_1_BaseInit
  95:Generated_Source\PSoC5/CapSense_1_CSHL.c **** ********************************************************************************
  96:Generated_Source\PSoC5/CapSense_1_CSHL.c **** *
  97:Generated_Source\PSoC5/CapSense_1_CSHL.c **** * Summary:
  98:Generated_Source\PSoC5/CapSense_1_CSHL.c **** *  Loads the CapSense_1_sensorBaseline[sensor] array element with an 
  99:Generated_Source\PSoC5/CapSense_1_CSHL.c **** *  initial value which is equal to raw count value. 
 100:Generated_Source\PSoC5/CapSense_1_CSHL.c **** *  Resets to zero CapSense_1_sensorBaselineLow[sensor] and 
 101:Generated_Source\PSoC5/CapSense_1_CSHL.c **** *  CapSense_1_sensorSignal[sensor] array element.
 102:Generated_Source\PSoC5/CapSense_1_CSHL.c **** *  Loads CapSense_1_debounceCounter[sensor] array element with initial 
 103:Generated_Source\PSoC5/CapSense_1_CSHL.c **** *  value equal CapSense_1_debounce[].
 104:Generated_Source\PSoC5/CapSense_1_CSHL.c **** *  Loads the CapSense_1_rawFilterData2[sensor] and 
 105:Generated_Source\PSoC5/CapSense_1_CSHL.c **** *  CapSense_1_rawFilterData2[sensor] array element with an 
 106:Generated_Source\PSoC5/CapSense_1_CSHL.c **** *  initial value which is equal raw count value if raw data filter is enabled.
 107:Generated_Source\PSoC5/CapSense_1_CSHL.c **** *
 108:Generated_Source\PSoC5/CapSense_1_CSHL.c **** * Parameters:
 109:Generated_Source\PSoC5/CapSense_1_CSHL.c **** *  sensor:  Sensor number.
 110:Generated_Source\PSoC5/CapSense_1_CSHL.c **** *
 111:Generated_Source\PSoC5/CapSense_1_CSHL.c **** * Return:
 112:Generated_Source\PSoC5/CapSense_1_CSHL.c **** *  None
 113:Generated_Source\PSoC5/CapSense_1_CSHL.c **** *
 114:Generated_Source\PSoC5/CapSense_1_CSHL.c **** * Global Variables:
 115:Generated_Source\PSoC5/CapSense_1_CSHL.c **** *  CapSense_1_sensorBaseline[]    - used to store baseline value.
 116:Generated_Source\PSoC5/CapSense_1_CSHL.c **** *  CapSense_1_sensorBaselineLow[] - used to store fraction byte of 
 117:Generated_Source\PSoC5/CapSense_1_CSHL.c **** *  baseline value.
 118:Generated_Source\PSoC5/CapSense_1_CSHL.c **** *  CapSense_1_sensorSignal[]      - used to store diffence between 
 119:Generated_Source\PSoC5/CapSense_1_CSHL.c **** *  current value of raw data and previous value of baseline.
 120:Generated_Source\PSoC5/CapSense_1_CSHL.c **** *  CapSense_1_debounceCounter[]   - used to store current debounce 
 121:Generated_Source\PSoC5/CapSense_1_CSHL.c **** *  counter of sensor. Widget which has this parameter are buttons, matrix 
 122:Generated_Source\PSoC5/CapSense_1_CSHL.c **** *  buttons, proximity, guard. All other widgets haven't debounce parameter
 123:Generated_Source\PSoC5/CapSense_1_CSHL.c **** *  and use the last element of this array with value 0 (it means no debounce).
 124:Generated_Source\PSoC5/CapSense_1_CSHL.c **** *  CapSense_1_rawFilterData1[]    - used to store previous sample of 
 125:Generated_Source\PSoC5/CapSense_1_CSHL.c **** *  any enabled raw data filter.
 126:Generated_Source\PSoC5/CapSense_1_CSHL.c **** *  CapSense_1_rawFilterData2[]    - used to store before previous sample
 127:Generated_Source\PSoC5/CapSense_1_CSHL.c **** *  of enabled raw data filter. Only required for median or average filters.
 128:Generated_Source\PSoC5/CapSense_1_CSHL.c **** *
 129:Generated_Source\PSoC5/CapSense_1_CSHL.c **** * Reentrant:
 130:Generated_Source\PSoC5/CapSense_1_CSHL.c **** *  No
 131:Generated_Source\PSoC5/CapSense_1_CSHL.c **** *
 132:Generated_Source\PSoC5/CapSense_1_CSHL.c **** *******************************************************************************/
 133:Generated_Source\PSoC5/CapSense_1_CSHL.c **** void CapSense_1_BaseInit(uint8 sensor) 
 134:Generated_Source\PSoC5/CapSense_1_CSHL.c **** {
  28              		.loc 1 134 0
  29              		.cfi_startproc
  30              		@ args = 0, pretend = 0, frame = 0
  31              		@ frame_needed = 0, uses_anonymous_args = 0
  32              		@ link register save eliminated.
  33              	.LVL0:
 135:Generated_Source\PSoC5/CapSense_1_CSHL.c ****     #if ((CapSense_1_TOTAL_BUTTONS_COUNT) || (CapSense_1_TOTAL_MATRIX_BUTTONS_COUNT) || \
 136:Generated_Source\PSoC5/CapSense_1_CSHL.c ****          (CapSense_1_TOTAL_GENERICS_COUNT))
 137:Generated_Source\PSoC5/CapSense_1_CSHL.c ****         uint8 widget = CapSense_1_widgetNumber[sensor];
 138:Generated_Source\PSoC5/CapSense_1_CSHL.c ****     #endif /* ((CapSense_1_TOTAL_MATRIX_BUTTONS_COUNT) || (CapSense_1_TOTAL_MATRIX_BUTTONS_COUNT)) 
ARM GAS  C:\Users\holge\AppData\Local\Temp\ccXKJRa1.s 			page 4


 139:Generated_Source\PSoC5/CapSense_1_CSHL.c ****     
 140:Generated_Source\PSoC5/CapSense_1_CSHL.c ****     #if (CapSense_1_TOTAL_MATRIX_BUTTONS_COUNT)
 141:Generated_Source\PSoC5/CapSense_1_CSHL.c ****         uint8 debounceIndex;
 142:Generated_Source\PSoC5/CapSense_1_CSHL.c ****     #endif  /* (CapSense_1_TOTAL_MATRIX_BUTTONS_COUNT) */
 143:Generated_Source\PSoC5/CapSense_1_CSHL.c ****     
 144:Generated_Source\PSoC5/CapSense_1_CSHL.c ****     #if (CapSense_1_TOTAL_GENERICS_COUNT)
 145:Generated_Source\PSoC5/CapSense_1_CSHL.c ****         /* Exclude generic widget */
 146:Generated_Source\PSoC5/CapSense_1_CSHL.c ****         if(widget < CapSense_1_END_OF_WIDGETS_INDEX)
 147:Generated_Source\PSoC5/CapSense_1_CSHL.c ****         {
 148:Generated_Source\PSoC5/CapSense_1_CSHL.c ****     #endif  /* CapSense_1_TOTAL_GENERICS_COUNT */
 149:Generated_Source\PSoC5/CapSense_1_CSHL.c ****     
 150:Generated_Source\PSoC5/CapSense_1_CSHL.c ****     /* Initialize Baseline */
 151:Generated_Source\PSoC5/CapSense_1_CSHL.c ****     CapSense_1_sensorBaseline[sensor] = CapSense_1_sensorRaw[sensor];
  34              		.loc 1 151 0
  35 0000 054B     		ldr	r3, .L2
  36 0002 33F81020 		ldrh	r2, [r3, r0, lsl #1]
  37 0006 054B     		ldr	r3, .L2+4
  38 0008 23F81020 		strh	r2, [r3, r0, lsl #1]	@ movhi
 152:Generated_Source\PSoC5/CapSense_1_CSHL.c ****     CapSense_1_sensorBaselineLow[sensor] = 0u;
  39              		.loc 1 152 0
  40 000c 0023     		movs	r3, #0
  41 000e 044A     		ldr	r2, .L2+8
  42 0010 1354     		strb	r3, [r2, r0]
 153:Generated_Source\PSoC5/CapSense_1_CSHL.c ****     CapSense_1_sensorSignal[sensor] = 0u;
  43              		.loc 1 153 0
  44 0012 044A     		ldr	r2, .L2+12
  45 0014 1354     		strb	r3, [r2, r0]
  46 0016 7047     		bx	lr
  47              	.L3:
  48              		.align	2
  49              	.L2:
  50 0018 00000000 		.word	CapSense_1_sensorRaw
  51 001c 00000000 		.word	CapSense_1_sensorBaseline
  52 0020 00000000 		.word	CapSense_1_sensorBaselineLow
  53 0024 00000000 		.word	CapSense_1_sensorSignal
  54              		.cfi_endproc
  55              	.LFE0:
  56              		.size	CapSense_1_BaseInit, .-CapSense_1_BaseInit
  57              		.section	.text.CapSense_1_InitializeSensorBaseline,"ax",%progbits
  58              		.align	2
  59              		.global	CapSense_1_InitializeSensorBaseline
  60              		.thumb
  61              		.thumb_func
  62              		.type	CapSense_1_InitializeSensorBaseline, %function
  63              	CapSense_1_InitializeSensorBaseline:
  64              	.LFB1:
 154:Generated_Source\PSoC5/CapSense_1_CSHL.c ****         
 155:Generated_Source\PSoC5/CapSense_1_CSHL.c **** 
 156:Generated_Source\PSoC5/CapSense_1_CSHL.c ****     
 157:Generated_Source\PSoC5/CapSense_1_CSHL.c ****     #if ((CapSense_1_RAW_FILTER_MASK & CapSense_1_MEDIAN_FILTER) |\
 158:Generated_Source\PSoC5/CapSense_1_CSHL.c ****          (CapSense_1_RAW_FILTER_MASK & CapSense_1_AVERAGING_FILTER))
 159:Generated_Source\PSoC5/CapSense_1_CSHL.c **** 
 160:Generated_Source\PSoC5/CapSense_1_CSHL.c ****         CapSense_1_rawFilterData1[sensor] = CapSense_1_sensorRaw[sensor];
 161:Generated_Source\PSoC5/CapSense_1_CSHL.c ****         CapSense_1_rawFilterData2[sensor] = CapSense_1_sensorRaw[sensor];
 162:Generated_Source\PSoC5/CapSense_1_CSHL.c ****     
 163:Generated_Source\PSoC5/CapSense_1_CSHL.c ****     #elif ((CapSense_1_RAW_FILTER_MASK & CapSense_1_IIR2_FILTER) |\
 164:Generated_Source\PSoC5/CapSense_1_CSHL.c ****            (CapSense_1_RAW_FILTER_MASK & CapSense_1_IIR4_FILTER) |\
ARM GAS  C:\Users\holge\AppData\Local\Temp\ccXKJRa1.s 			page 5


 165:Generated_Source\PSoC5/CapSense_1_CSHL.c ****            (CapSense_1_RAW_FILTER_MASK & CapSense_1_JITTER_FILTER) |\
 166:Generated_Source\PSoC5/CapSense_1_CSHL.c ****            (CapSense_1_RAW_FILTER_MASK & CapSense_1_IIR8_FILTER) |\
 167:Generated_Source\PSoC5/CapSense_1_CSHL.c ****            (CapSense_1_RAW_FILTER_MASK & CapSense_1_IIR16_FILTER))
 168:Generated_Source\PSoC5/CapSense_1_CSHL.c ****             
 169:Generated_Source\PSoC5/CapSense_1_CSHL.c ****         CapSense_1_rawFilterData1[sensor] = CapSense_1_sensorRaw[sensor];
 170:Generated_Source\PSoC5/CapSense_1_CSHL.c ****     
 171:Generated_Source\PSoC5/CapSense_1_CSHL.c ****     #else
 172:Generated_Source\PSoC5/CapSense_1_CSHL.c ****         /* No Raw filters */
 173:Generated_Source\PSoC5/CapSense_1_CSHL.c ****     #endif  /* ((CapSense_1_RAW_FILTER_MASK & CapSense_1_MEDIAN_FILTER) | \
 174:Generated_Source\PSoC5/CapSense_1_CSHL.c ****             *   (CapSense_1_RAW_FILTER_MASK & CapSense_1_AVERAGING_FILTER))
 175:Generated_Source\PSoC5/CapSense_1_CSHL.c ****             */
 176:Generated_Source\PSoC5/CapSense_1_CSHL.c ****     
 177:Generated_Source\PSoC5/CapSense_1_CSHL.c ****     #if (CapSense_1_TOTAL_GENERICS_COUNT)
 178:Generated_Source\PSoC5/CapSense_1_CSHL.c ****         /* Exclude generic widget */
 179:Generated_Source\PSoC5/CapSense_1_CSHL.c ****         }
 180:Generated_Source\PSoC5/CapSense_1_CSHL.c ****     #endif  /* CapSense_1_TOTAL_GENERICS_COUNT */
 181:Generated_Source\PSoC5/CapSense_1_CSHL.c **** }
 182:Generated_Source\PSoC5/CapSense_1_CSHL.c **** 
 183:Generated_Source\PSoC5/CapSense_1_CSHL.c **** 
 184:Generated_Source\PSoC5/CapSense_1_CSHL.c **** /*******************************************************************************
 185:Generated_Source\PSoC5/CapSense_1_CSHL.c **** * Function Name: CapSense_1_InitializeSensorBaseline
 186:Generated_Source\PSoC5/CapSense_1_CSHL.c **** ********************************************************************************
 187:Generated_Source\PSoC5/CapSense_1_CSHL.c **** *
 188:Generated_Source\PSoC5/CapSense_1_CSHL.c **** * Summary:
 189:Generated_Source\PSoC5/CapSense_1_CSHL.c **** *  Loads the CapSense_1_sensorBaseline[sensor] array element with an 
 190:Generated_Source\PSoC5/CapSense_1_CSHL.c **** *  initial value by scanning the selected sensor (one channel design) or pair 
 191:Generated_Source\PSoC5/CapSense_1_CSHL.c **** *  of sensors (two channels designs). The raw count value is copied into the 
 192:Generated_Source\PSoC5/CapSense_1_CSHL.c **** *  baseline array for each sensor. The raw data filters are initialized if 
 193:Generated_Source\PSoC5/CapSense_1_CSHL.c **** *  enabled.
 194:Generated_Source\PSoC5/CapSense_1_CSHL.c **** *
 195:Generated_Source\PSoC5/CapSense_1_CSHL.c **** * Parameters:
 196:Generated_Source\PSoC5/CapSense_1_CSHL.c **** *  sensor:  Sensor number.
 197:Generated_Source\PSoC5/CapSense_1_CSHL.c **** *
 198:Generated_Source\PSoC5/CapSense_1_CSHL.c **** * Return:
 199:Generated_Source\PSoC5/CapSense_1_CSHL.c **** *  None
 200:Generated_Source\PSoC5/CapSense_1_CSHL.c **** *
 201:Generated_Source\PSoC5/CapSense_1_CSHL.c **** * Reentrant:
 202:Generated_Source\PSoC5/CapSense_1_CSHL.c **** *  No
 203:Generated_Source\PSoC5/CapSense_1_CSHL.c **** *
 204:Generated_Source\PSoC5/CapSense_1_CSHL.c **** *******************************************************************************/
 205:Generated_Source\PSoC5/CapSense_1_CSHL.c **** void CapSense_1_InitializeSensorBaseline(uint8 sensor)
 206:Generated_Source\PSoC5/CapSense_1_CSHL.c ****                           
 207:Generated_Source\PSoC5/CapSense_1_CSHL.c **** {
  65              		.loc 1 207 0
  66              		.cfi_startproc
  67              		@ args = 0, pretend = 0, frame = 0
  68              		@ frame_needed = 0, uses_anonymous_args = 0
  69              	.LVL1:
  70 0000 10B5     		push	{r4, lr}
  71              		.cfi_def_cfa_offset 8
  72              		.cfi_offset 4, -8
  73              		.cfi_offset 14, -4
  74 0002 0446     		mov	r4, r0
 208:Generated_Source\PSoC5/CapSense_1_CSHL.c ****     /* Scan sensor */
 209:Generated_Source\PSoC5/CapSense_1_CSHL.c ****     CapSense_1_ScanSensor(sensor);
  75              		.loc 1 209 0
  76 0004 FFF7FEFF 		bl	CapSense_1_ScanSensor
ARM GAS  C:\Users\holge\AppData\Local\Temp\ccXKJRa1.s 			page 6


  77              	.LVL2:
  78              	.L5:
 210:Generated_Source\PSoC5/CapSense_1_CSHL.c ****     while(CapSense_1_IsBusy() != 0u)
  79              		.loc 1 210 0 discriminator 1
  80 0008 FFF7FEFF 		bl	CapSense_1_IsBusy
  81              	.LVL3:
  82 000c 0028     		cmp	r0, #0
  83 000e FBD1     		bne	.L5
 211:Generated_Source\PSoC5/CapSense_1_CSHL.c ****     {
 212:Generated_Source\PSoC5/CapSense_1_CSHL.c ****         /* Wait while busy */
 213:Generated_Source\PSoC5/CapSense_1_CSHL.c ****     }
 214:Generated_Source\PSoC5/CapSense_1_CSHL.c ****     
 215:Generated_Source\PSoC5/CapSense_1_CSHL.c ****     #if (CapSense_1_DESIGN_TYPE == CapSense_1_ONE_CHANNEL_DESIGN)
 216:Generated_Source\PSoC5/CapSense_1_CSHL.c ****         /* Initialize Baseline, Signal and debounce counters */       
 217:Generated_Source\PSoC5/CapSense_1_CSHL.c ****         CapSense_1_BaseInit(sensor);
  84              		.loc 1 217 0
  85 0010 2046     		mov	r0, r4
  86 0012 FFF7FEFF 		bl	CapSense_1_BaseInit
  87              	.LVL4:
  88 0016 10BD     		pop	{r4, pc}
  89              		.cfi_endproc
  90              	.LFE1:
  91              		.size	CapSense_1_InitializeSensorBaseline, .-CapSense_1_InitializeSensorBaseline
  92              		.section	.text.CapSense_1_InitializeAllBaselines,"ax",%progbits
  93              		.align	2
  94              		.global	CapSense_1_InitializeAllBaselines
  95              		.thumb
  96              		.thumb_func
  97              		.type	CapSense_1_InitializeAllBaselines, %function
  98              	CapSense_1_InitializeAllBaselines:
  99              	.LFB2:
 218:Generated_Source\PSoC5/CapSense_1_CSHL.c ****         
 219:Generated_Source\PSoC5/CapSense_1_CSHL.c ****     #else
 220:Generated_Source\PSoC5/CapSense_1_CSHL.c ****     
 221:Generated_Source\PSoC5/CapSense_1_CSHL.c ****         if(sensor < CapSense_1_TOTAL_SENSOR_COUNT__CH0)
 222:Generated_Source\PSoC5/CapSense_1_CSHL.c ****         {
 223:Generated_Source\PSoC5/CapSense_1_CSHL.c ****             /* Initialize Baseline, Signal and debounce counters */ 
 224:Generated_Source\PSoC5/CapSense_1_CSHL.c ****             CapSense_1_BaseInit(sensor);
 225:Generated_Source\PSoC5/CapSense_1_CSHL.c ****         }
 226:Generated_Source\PSoC5/CapSense_1_CSHL.c ****         
 227:Generated_Source\PSoC5/CapSense_1_CSHL.c ****         if(sensor < CapSense_1_TOTAL_SENSOR_COUNT__CH1)
 228:Generated_Source\PSoC5/CapSense_1_CSHL.c ****         {
 229:Generated_Source\PSoC5/CapSense_1_CSHL.c ****             /* Initialize Baseline, Signal and debounce counters */
 230:Generated_Source\PSoC5/CapSense_1_CSHL.c ****             CapSense_1_BaseInit(sensor + CapSense_1_TOTAL_SENSOR_COUNT__CH0);
 231:Generated_Source\PSoC5/CapSense_1_CSHL.c ****         }
 232:Generated_Source\PSoC5/CapSense_1_CSHL.c ****     
 233:Generated_Source\PSoC5/CapSense_1_CSHL.c ****     #endif  /* (CapSense_1_DESIGN_TYPE == CapSense_1_ONE_CHANNEL_DESIGN) */
 234:Generated_Source\PSoC5/CapSense_1_CSHL.c **** }
 235:Generated_Source\PSoC5/CapSense_1_CSHL.c **** 
 236:Generated_Source\PSoC5/CapSense_1_CSHL.c **** 
 237:Generated_Source\PSoC5/CapSense_1_CSHL.c **** /*******************************************************************************
 238:Generated_Source\PSoC5/CapSense_1_CSHL.c **** * Function Name: CapSense_1_InitializeAllBaselines
 239:Generated_Source\PSoC5/CapSense_1_CSHL.c **** ********************************************************************************
 240:Generated_Source\PSoC5/CapSense_1_CSHL.c **** *
 241:Generated_Source\PSoC5/CapSense_1_CSHL.c **** * Summary:
 242:Generated_Source\PSoC5/CapSense_1_CSHL.c **** *  Uses the CapSense_1_InitializeSensorBaseline function to loads the 
 243:Generated_Source\PSoC5/CapSense_1_CSHL.c **** *  CapSense_1_sensorBaseline[] array with an initial values by scanning 
ARM GAS  C:\Users\holge\AppData\Local\Temp\ccXKJRa1.s 			page 7


 244:Generated_Source\PSoC5/CapSense_1_CSHL.c **** *  all sensors. The raw count values are copied into the baseline array for 
 245:Generated_Source\PSoC5/CapSense_1_CSHL.c **** *  all sensors. The raw data filters are initialized if enabled.
 246:Generated_Source\PSoC5/CapSense_1_CSHL.c **** *
 247:Generated_Source\PSoC5/CapSense_1_CSHL.c **** * Parameters:
 248:Generated_Source\PSoC5/CapSense_1_CSHL.c **** *  None
 249:Generated_Source\PSoC5/CapSense_1_CSHL.c **** *
 250:Generated_Source\PSoC5/CapSense_1_CSHL.c **** * Return:
 251:Generated_Source\PSoC5/CapSense_1_CSHL.c **** *  None
 252:Generated_Source\PSoC5/CapSense_1_CSHL.c **** *
 253:Generated_Source\PSoC5/CapSense_1_CSHL.c **** * Reentrant:
 254:Generated_Source\PSoC5/CapSense_1_CSHL.c **** *  No
 255:Generated_Source\PSoC5/CapSense_1_CSHL.c **** *
 256:Generated_Source\PSoC5/CapSense_1_CSHL.c **** *******************************************************************************/
 257:Generated_Source\PSoC5/CapSense_1_CSHL.c **** void CapSense_1_InitializeAllBaselines(void)
 258:Generated_Source\PSoC5/CapSense_1_CSHL.c ****                           
 259:Generated_Source\PSoC5/CapSense_1_CSHL.c **** {
 100              		.loc 1 259 0
 101              		.cfi_startproc
 102              		@ args = 0, pretend = 0, frame = 0
 103              		@ frame_needed = 0, uses_anonymous_args = 0
 104 0000 10B5     		push	{r4, lr}
 105              		.cfi_def_cfa_offset 8
 106              		.cfi_offset 4, -8
 107              		.cfi_offset 14, -4
 108              	.LVL5:
 260:Generated_Source\PSoC5/CapSense_1_CSHL.c ****     uint8 i;
 261:Generated_Source\PSoC5/CapSense_1_CSHL.c ****     
 262:Generated_Source\PSoC5/CapSense_1_CSHL.c ****     /* The baseline initialize by sensor of sensor pair */
 263:Generated_Source\PSoC5/CapSense_1_CSHL.c ****     for(i = 0u; i < CapSense_1_TOTAL_SCANSLOT_COUNT; i++)
 109              		.loc 1 263 0
 110 0002 0024     		movs	r4, #0
 111 0004 04E0     		b	.L8
 112              	.LVL6:
 113              	.L9:
 264:Generated_Source\PSoC5/CapSense_1_CSHL.c ****     {
 265:Generated_Source\PSoC5/CapSense_1_CSHL.c ****         CapSense_1_InitializeSensorBaseline(i);
 114              		.loc 1 265 0 discriminator 3
 115 0006 2046     		mov	r0, r4
 116 0008 FFF7FEFF 		bl	CapSense_1_InitializeSensorBaseline
 117              	.LVL7:
 263:Generated_Source\PSoC5/CapSense_1_CSHL.c ****     {
 118              		.loc 1 263 0 discriminator 3
 119 000c 0134     		adds	r4, r4, #1
 120              	.LVL8:
 121 000e E4B2     		uxtb	r4, r4
 122              	.LVL9:
 123              	.L8:
 263:Generated_Source\PSoC5/CapSense_1_CSHL.c ****     {
 124              		.loc 1 263 0 is_stmt 0 discriminator 1
 125 0010 042C     		cmp	r4, #4
 126 0012 F8D9     		bls	.L9
 266:Generated_Source\PSoC5/CapSense_1_CSHL.c ****     }
 267:Generated_Source\PSoC5/CapSense_1_CSHL.c **** }
 127              		.loc 1 267 0 is_stmt 1
 128 0014 10BD     		pop	{r4, pc}
 129              		.cfi_endproc
 130              	.LFE2:
ARM GAS  C:\Users\holge\AppData\Local\Temp\ccXKJRa1.s 			page 8


 131              		.size	CapSense_1_InitializeAllBaselines, .-CapSense_1_InitializeAllBaselines
 132 0016 00BF     		.section	.text.CapSense_1_InitializeEnabledBaselines,"ax",%progbits
 133              		.align	2
 134              		.global	CapSense_1_InitializeEnabledBaselines
 135              		.thumb
 136              		.thumb_func
 137              		.type	CapSense_1_InitializeEnabledBaselines, %function
 138              	CapSense_1_InitializeEnabledBaselines:
 139              	.LFB3:
 268:Generated_Source\PSoC5/CapSense_1_CSHL.c **** 
 269:Generated_Source\PSoC5/CapSense_1_CSHL.c **** 
 270:Generated_Source\PSoC5/CapSense_1_CSHL.c **** /*******************************************************************************
 271:Generated_Source\PSoC5/CapSense_1_CSHL.c **** * Function Name: CapSense_1_InitializeEnabledBaselines
 272:Generated_Source\PSoC5/CapSense_1_CSHL.c **** ********************************************************************************
 273:Generated_Source\PSoC5/CapSense_1_CSHL.c **** *
 274:Generated_Source\PSoC5/CapSense_1_CSHL.c **** * Summary:
 275:Generated_Source\PSoC5/CapSense_1_CSHL.c **** *  Scans all enabled widgets and the raw count values are copied into the 
 276:Generated_Source\PSoC5/CapSense_1_CSHL.c **** *  baseline array for all sensors enabled in scanning process. Baselines 
 277:Generated_Source\PSoC5/CapSense_1_CSHL.c **** *  initialize with zero values for sensors disabled from scanning process. 
 278:Generated_Source\PSoC5/CapSense_1_CSHL.c **** *  The raw data filters are initialized if enabled.
 279:Generated_Source\PSoC5/CapSense_1_CSHL.c **** *
 280:Generated_Source\PSoC5/CapSense_1_CSHL.c **** * Parameters:
 281:Generated_Source\PSoC5/CapSense_1_CSHL.c **** *  None
 282:Generated_Source\PSoC5/CapSense_1_CSHL.c **** *
 283:Generated_Source\PSoC5/CapSense_1_CSHL.c **** * Return:
 284:Generated_Source\PSoC5/CapSense_1_CSHL.c **** *  None
 285:Generated_Source\PSoC5/CapSense_1_CSHL.c **** *
 286:Generated_Source\PSoC5/CapSense_1_CSHL.c **** * Reentrant:
 287:Generated_Source\PSoC5/CapSense_1_CSHL.c **** *  No
 288:Generated_Source\PSoC5/CapSense_1_CSHL.c **** *
 289:Generated_Source\PSoC5/CapSense_1_CSHL.c **** *******************************************************************************/
 290:Generated_Source\PSoC5/CapSense_1_CSHL.c **** void CapSense_1_InitializeEnabledBaselines(void)
 291:Generated_Source\PSoC5/CapSense_1_CSHL.c ****                              
 292:Generated_Source\PSoC5/CapSense_1_CSHL.c **** {
 140              		.loc 1 292 0
 141              		.cfi_startproc
 142              		@ args = 0, pretend = 0, frame = 0
 143              		@ frame_needed = 0, uses_anonymous_args = 0
 144 0000 10B5     		push	{r4, lr}
 145              		.cfi_def_cfa_offset 8
 146              		.cfi_offset 4, -8
 147              		.cfi_offset 14, -4
 293:Generated_Source\PSoC5/CapSense_1_CSHL.c ****     uint8 i;
 294:Generated_Source\PSoC5/CapSense_1_CSHL.c ****     uint8 pos;
 295:Generated_Source\PSoC5/CapSense_1_CSHL.c ****     uint8 enMask;
 296:Generated_Source\PSoC5/CapSense_1_CSHL.c ****     
 297:Generated_Source\PSoC5/CapSense_1_CSHL.c ****     CapSense_1_ScanEnabledWidgets();
 148              		.loc 1 297 0
 149 0002 FFF7FEFF 		bl	CapSense_1_ScanEnabledWidgets
 150              	.LVL10:
 151              	.L12:
 298:Generated_Source\PSoC5/CapSense_1_CSHL.c ****     while(CapSense_1_IsBusy() != 0u)
 152              		.loc 1 298 0 discriminator 1
 153 0006 FFF7FEFF 		bl	CapSense_1_IsBusy
 154              	.LVL11:
 155 000a 0028     		cmp	r0, #0
 156 000c FBD1     		bne	.L12
ARM GAS  C:\Users\holge\AppData\Local\Temp\ccXKJRa1.s 			page 9


 157 000e 0024     		movs	r4, #0
 158 0010 11E0     		b	.L13
 159              	.LVL12:
 160              	.L15:
 299:Generated_Source\PSoC5/CapSense_1_CSHL.c ****     {
 300:Generated_Source\PSoC5/CapSense_1_CSHL.c ****         /* Wait while busy */
 301:Generated_Source\PSoC5/CapSense_1_CSHL.c ****     }
 302:Generated_Source\PSoC5/CapSense_1_CSHL.c ****     
 303:Generated_Source\PSoC5/CapSense_1_CSHL.c ****     for(i = 0u; i < CapSense_1_TOTAL_SENSOR_COUNT; i++)
 304:Generated_Source\PSoC5/CapSense_1_CSHL.c ****     {
 305:Generated_Source\PSoC5/CapSense_1_CSHL.c ****         pos = (i >> 3u);
 161              		.loc 1 305 0
 162 0012 E208     		lsrs	r2, r4, #3
 306:Generated_Source\PSoC5/CapSense_1_CSHL.c ****         enMask = 0x01u << (i & 0x07u);
 163              		.loc 1 306 0
 164 0014 04F00701 		and	r1, r4, #7
 165 0018 0123     		movs	r3, #1
 166 001a 8B40     		lsls	r3, r3, r1
 167              	.LVL13:
 307:Generated_Source\PSoC5/CapSense_1_CSHL.c ****         
 308:Generated_Source\PSoC5/CapSense_1_CSHL.c ****         /* Clear raw data if sensor is disabled from scanning process */
 309:Generated_Source\PSoC5/CapSense_1_CSHL.c ****         if((CapSense_1_sensorEnableMask[pos] & enMask) == 0u)
 168              		.loc 1 309 0
 169 001c 0749     		ldr	r1, .L17
 170 001e 8A5C     		ldrb	r2, [r1, r2]	@ zero_extendqisi2
 171 0020 1342     		tst	r3, r2
 172 0022 03D1     		bne	.L14
 310:Generated_Source\PSoC5/CapSense_1_CSHL.c ****         {
 311:Generated_Source\PSoC5/CapSense_1_CSHL.c ****             CapSense_1_sensorRaw[i] = 0u;
 173              		.loc 1 311 0
 174 0024 0022     		movs	r2, #0
 175 0026 064B     		ldr	r3, .L17+4
 176              	.LVL14:
 177 0028 23F81420 		strh	r2, [r3, r4, lsl #1]	@ movhi
 178              	.L14:
 312:Generated_Source\PSoC5/CapSense_1_CSHL.c ****         }
 313:Generated_Source\PSoC5/CapSense_1_CSHL.c ****         
 314:Generated_Source\PSoC5/CapSense_1_CSHL.c ****         /* Initialize baselines */
 315:Generated_Source\PSoC5/CapSense_1_CSHL.c ****         CapSense_1_BaseInit(i);
 179              		.loc 1 315 0 discriminator 2
 180 002c 2046     		mov	r0, r4
 181 002e FFF7FEFF 		bl	CapSense_1_BaseInit
 182              	.LVL15:
 303:Generated_Source\PSoC5/CapSense_1_CSHL.c ****     {
 183              		.loc 1 303 0 discriminator 2
 184 0032 0134     		adds	r4, r4, #1
 185              	.LVL16:
 186 0034 E4B2     		uxtb	r4, r4
 187              	.LVL17:
 188              	.L13:
 303:Generated_Source\PSoC5/CapSense_1_CSHL.c ****     {
 189              		.loc 1 303 0 is_stmt 0 discriminator 1
 190 0036 042C     		cmp	r4, #4
 191 0038 EBD9     		bls	.L15
 316:Generated_Source\PSoC5/CapSense_1_CSHL.c ****     }
 317:Generated_Source\PSoC5/CapSense_1_CSHL.c **** }  
 192              		.loc 1 317 0 is_stmt 1
ARM GAS  C:\Users\holge\AppData\Local\Temp\ccXKJRa1.s 			page 10


 193 003a 10BD     		pop	{r4, pc}
 194              	.LVL18:
 195              	.L18:
 196              		.align	2
 197              	.L17:
 198 003c 00000000 		.word	CapSense_1_sensorEnableMask
 199 0040 00000000 		.word	CapSense_1_sensorRaw
 200              		.cfi_endproc
 201              	.LFE3:
 202              		.size	CapSense_1_InitializeEnabledBaselines, .-CapSense_1_InitializeEnabledBaselines
 203              		.section	.text.CapSense_1_UpdateSensorBaseline,"ax",%progbits
 204              		.align	2
 205              		.global	CapSense_1_UpdateSensorBaseline
 206              		.thumb
 207              		.thumb_func
 208              		.type	CapSense_1_UpdateSensorBaseline, %function
 209              	CapSense_1_UpdateSensorBaseline:
 210              	.LFB4:
 318:Generated_Source\PSoC5/CapSense_1_CSHL.c **** 
 319:Generated_Source\PSoC5/CapSense_1_CSHL.c **** 
 320:Generated_Source\PSoC5/CapSense_1_CSHL.c **** /*******************************************************************************
 321:Generated_Source\PSoC5/CapSense_1_CSHL.c **** * Function Name: CapSense_1_UpdateSensorBaseline
 322:Generated_Source\PSoC5/CapSense_1_CSHL.c **** ********************************************************************************
 323:Generated_Source\PSoC5/CapSense_1_CSHL.c **** *
 324:Generated_Source\PSoC5/CapSense_1_CSHL.c **** * Summary:
 325:Generated_Source\PSoC5/CapSense_1_CSHL.c **** *  Updates the CapSense_1_sensorBaseline[sensor] array element using the 
 326:Generated_Source\PSoC5/CapSense_1_CSHL.c **** *  LP filter with k = 256. The signal calculates the difference of count by 
 327:Generated_Source\PSoC5/CapSense_1_CSHL.c **** *  subtracting the previous baseline from the current raw count value and stores
 328:Generated_Source\PSoC5/CapSense_1_CSHL.c **** *  it in CapSense_1_SensorSignal[sensor]. 
 329:Generated_Source\PSoC5/CapSense_1_CSHL.c **** *  If auto reset option is enabled the baseline updated regards noise threshold. 
 330:Generated_Source\PSoC5/CapSense_1_CSHL.c **** *  If auto reset option is disabled the baseline stops updating if signal is 
 331:Generated_Source\PSoC5/CapSense_1_CSHL.c **** *  greater that zero and baseline loads with raw count value if signal is less 
 332:Generated_Source\PSoC5/CapSense_1_CSHL.c **** *  that noise threshold.
 333:Generated_Source\PSoC5/CapSense_1_CSHL.c **** *  Raw data filters are applied to the values if enabled before baseline 
 334:Generated_Source\PSoC5/CapSense_1_CSHL.c **** *  calculation.
 335:Generated_Source\PSoC5/CapSense_1_CSHL.c **** *
 336:Generated_Source\PSoC5/CapSense_1_CSHL.c **** * Parameters:
 337:Generated_Source\PSoC5/CapSense_1_CSHL.c **** *  sensor:  Sensor number.
 338:Generated_Source\PSoC5/CapSense_1_CSHL.c **** *
 339:Generated_Source\PSoC5/CapSense_1_CSHL.c **** * Return:
 340:Generated_Source\PSoC5/CapSense_1_CSHL.c **** *  None
 341:Generated_Source\PSoC5/CapSense_1_CSHL.c **** *
 342:Generated_Source\PSoC5/CapSense_1_CSHL.c **** * Global Variables:
 343:Generated_Source\PSoC5/CapSense_1_CSHL.c **** *  CapSense_1_sensorBaseline[]    - used to store baseline value.
 344:Generated_Source\PSoC5/CapSense_1_CSHL.c **** *  CapSense_1_sensorBaselineLow[] - used to store fraction byte of 
 345:Generated_Source\PSoC5/CapSense_1_CSHL.c **** *  baseline value.
 346:Generated_Source\PSoC5/CapSense_1_CSHL.c **** *  CapSense_1_sensorSignal[]      - used to store diffence between 
 347:Generated_Source\PSoC5/CapSense_1_CSHL.c **** *  current value of raw data and previous value of baseline.
 348:Generated_Source\PSoC5/CapSense_1_CSHL.c **** *  CapSense_1_rawFilterData1[]    - used to store previous sample of 
 349:Generated_Source\PSoC5/CapSense_1_CSHL.c **** *  any enabled raw data filter.
 350:Generated_Source\PSoC5/CapSense_1_CSHL.c **** *  CapSense_1_rawFilterData2[]    - used to store before previous sample
 351:Generated_Source\PSoC5/CapSense_1_CSHL.c **** *  of enabled raw data filter. Only required for median or average filters.
 352:Generated_Source\PSoC5/CapSense_1_CSHL.c **** *
 353:Generated_Source\PSoC5/CapSense_1_CSHL.c **** * Reentrant:
 354:Generated_Source\PSoC5/CapSense_1_CSHL.c **** *  No
 355:Generated_Source\PSoC5/CapSense_1_CSHL.c **** *
 356:Generated_Source\PSoC5/CapSense_1_CSHL.c **** *******************************************************************************/
ARM GAS  C:\Users\holge\AppData\Local\Temp\ccXKJRa1.s 			page 11


 357:Generated_Source\PSoC5/CapSense_1_CSHL.c ****  void CapSense_1_UpdateSensorBaseline(uint8 sensor)
 358:Generated_Source\PSoC5/CapSense_1_CSHL.c ****                                  
 359:Generated_Source\PSoC5/CapSense_1_CSHL.c **** {
 211              		.loc 1 359 0
 212              		.cfi_startproc
 213              		@ args = 0, pretend = 0, frame = 0
 214              		@ frame_needed = 0, uses_anonymous_args = 0
 215              	.LVL19:
 216 0000 70B5     		push	{r4, r5, r6, lr}
 217              		.cfi_def_cfa_offset 16
 218              		.cfi_offset 4, -16
 219              		.cfi_offset 5, -12
 220              		.cfi_offset 6, -8
 221              		.cfi_offset 14, -4
 222 0002 0446     		mov	r4, r0
 223              	.LVL20:
 360:Generated_Source\PSoC5/CapSense_1_CSHL.c ****     uint32 calc;
 361:Generated_Source\PSoC5/CapSense_1_CSHL.c ****     uint16 tempRaw;
 362:Generated_Source\PSoC5/CapSense_1_CSHL.c ****     uint16 filteredRawData;
 363:Generated_Source\PSoC5/CapSense_1_CSHL.c ****     uint8 widget = CapSense_1_widgetNumber[sensor];
 364:Generated_Source\PSoC5/CapSense_1_CSHL.c ****     uint8 noiseThreshold = CapSense_1_noiseThreshold[widget];
 365:Generated_Source\PSoC5/CapSense_1_CSHL.c ****     
 366:Generated_Source\PSoC5/CapSense_1_CSHL.c ****     #if (CapSense_1_TOTAL_GENERICS_COUNT)
 367:Generated_Source\PSoC5/CapSense_1_CSHL.c ****         /* Exclude generic widget */
 368:Generated_Source\PSoC5/CapSense_1_CSHL.c ****         if(widget < CapSense_1_END_OF_WIDGETS_INDEX)
 369:Generated_Source\PSoC5/CapSense_1_CSHL.c ****         {
 370:Generated_Source\PSoC5/CapSense_1_CSHL.c ****     #endif  /* CapSense_1_TOTAL_GENERICS_COUNT */
 371:Generated_Source\PSoC5/CapSense_1_CSHL.c ****     
 372:Generated_Source\PSoC5/CapSense_1_CSHL.c ****     filteredRawData = CapSense_1_sensorRaw[sensor];
 224              		.loc 1 372 0
 225 0004 224B     		ldr	r3, .L30
 226 0006 33F81030 		ldrh	r3, [r3, r0, lsl #1]
 227              	.LVL21:
 373:Generated_Source\PSoC5/CapSense_1_CSHL.c ****     
 374:Generated_Source\PSoC5/CapSense_1_CSHL.c ****     #if (CapSense_1_RAW_FILTER_MASK & CapSense_1_MEDIAN_FILTER)
 375:Generated_Source\PSoC5/CapSense_1_CSHL.c ****         tempRaw = filteredRawData;
 376:Generated_Source\PSoC5/CapSense_1_CSHL.c ****         filteredRawData = CapSense_1_MedianFilter(filteredRawData, CapSense_1_rawFilterData1[sensor
 377:Generated_Source\PSoC5/CapSense_1_CSHL.c ****                                                         CapSense_1_rawFilterData2[sensor]);
 378:Generated_Source\PSoC5/CapSense_1_CSHL.c ****         CapSense_1_rawFilterData2[sensor] = CapSense_1_rawFilterData1[sensor];
 379:Generated_Source\PSoC5/CapSense_1_CSHL.c ****         CapSense_1_rawFilterData1[sensor] = tempRaw;
 380:Generated_Source\PSoC5/CapSense_1_CSHL.c ****         
 381:Generated_Source\PSoC5/CapSense_1_CSHL.c ****     #elif (CapSense_1_RAW_FILTER_MASK & CapSense_1_AVERAGING_FILTER)
 382:Generated_Source\PSoC5/CapSense_1_CSHL.c ****         tempRaw = filteredRawData;
 383:Generated_Source\PSoC5/CapSense_1_CSHL.c ****         filteredRawData = CapSense_1_AveragingFilter(filteredRawData, CapSense_1_rawFilterData1[sen
 384:Generated_Source\PSoC5/CapSense_1_CSHL.c ****                                                            CapSense_1_rawFilterData2[sensor]);
 385:Generated_Source\PSoC5/CapSense_1_CSHL.c ****         CapSense_1_rawFilterData2[sensor] = CapSense_1_rawFilterData1[sensor];
 386:Generated_Source\PSoC5/CapSense_1_CSHL.c ****         CapSense_1_rawFilterData1[sensor] = tempRaw;
 387:Generated_Source\PSoC5/CapSense_1_CSHL.c ****         
 388:Generated_Source\PSoC5/CapSense_1_CSHL.c ****     #elif (CapSense_1_RAW_FILTER_MASK & CapSense_1_IIR2_FILTER)
 389:Generated_Source\PSoC5/CapSense_1_CSHL.c ****         filteredRawData = CapSense_1_IIR2Filter(filteredRawData, CapSense_1_rawFilterData1[sensor])
 390:Generated_Source\PSoC5/CapSense_1_CSHL.c ****         CapSense_1_rawFilterData1[sensor] = filteredRawData;
 391:Generated_Source\PSoC5/CapSense_1_CSHL.c ****         
 392:Generated_Source\PSoC5/CapSense_1_CSHL.c ****     #elif (CapSense_1_RAW_FILTER_MASK & CapSense_1_IIR4_FILTER)
 393:Generated_Source\PSoC5/CapSense_1_CSHL.c ****         filteredRawData = CapSense_1_IIR4Filter(filteredRawData, CapSense_1_rawFilterData1[sensor])
 394:Generated_Source\PSoC5/CapSense_1_CSHL.c ****         CapSense_1_rawFilterData1[sensor] = filteredRawData;
 395:Generated_Source\PSoC5/CapSense_1_CSHL.c ****             
 396:Generated_Source\PSoC5/CapSense_1_CSHL.c ****     #elif (CapSense_1_RAW_FILTER_MASK & CapSense_1_JITTER_FILTER)
ARM GAS  C:\Users\holge\AppData\Local\Temp\ccXKJRa1.s 			page 12


 397:Generated_Source\PSoC5/CapSense_1_CSHL.c ****         filteredRawData = CapSense_1_JitterFilter(filteredRawData, CapSense_1_rawFilterData1[sensor
 398:Generated_Source\PSoC5/CapSense_1_CSHL.c ****         CapSense_1_rawFilterData1[sensor] = filteredRawData;
 399:Generated_Source\PSoC5/CapSense_1_CSHL.c ****         
 400:Generated_Source\PSoC5/CapSense_1_CSHL.c ****     #elif (CapSense_1_RAW_FILTER_MASK & CapSense_1_IIR8_FILTER)
 401:Generated_Source\PSoC5/CapSense_1_CSHL.c ****         filteredRawData = CapSense_1_IIR8Filter(filteredRawData, CapSense_1_rawFilterData1[sensor])
 402:Generated_Source\PSoC5/CapSense_1_CSHL.c ****         CapSense_1_rawFilterData1[sensor] = filteredRawData;
 403:Generated_Source\PSoC5/CapSense_1_CSHL.c ****         
 404:Generated_Source\PSoC5/CapSense_1_CSHL.c ****     #elif (CapSense_1_RAW_FILTER_MASK & CapSense_1_IIR16_FILTER)
 405:Generated_Source\PSoC5/CapSense_1_CSHL.c ****         filteredRawData = CapSense_1_IIR16Filter(filteredRawData, CapSense_1_rawFilterData1[sensor]
 406:Generated_Source\PSoC5/CapSense_1_CSHL.c ****         CapSense_1_rawFilterData1[sensor] = filteredRawData;
 407:Generated_Source\PSoC5/CapSense_1_CSHL.c ****         
 408:Generated_Source\PSoC5/CapSense_1_CSHL.c ****     #else
 409:Generated_Source\PSoC5/CapSense_1_CSHL.c ****         /* No Raw filters */
 410:Generated_Source\PSoC5/CapSense_1_CSHL.c ****     #endif  /* (CapSense_1_RAW_FILTER_MASK & CapSense_1_MEDIAN_FILTER) */
 411:Generated_Source\PSoC5/CapSense_1_CSHL.c ****     
 412:Generated_Source\PSoC5/CapSense_1_CSHL.c ****     #if (CapSense_1_TUNING_METHOD == CapSense_1_AUTO_TUNING)
 413:Generated_Source\PSoC5/CapSense_1_CSHL.c ****         CapSense_1_CalculateThresholds(sensor);
 414:Generated_Source\PSoC5/CapSense_1_CSHL.c ****     #endif /* (CapSense_1_TUNING_METHOD == CapSense_1_AUTO_TUNING) */
 415:Generated_Source\PSoC5/CapSense_1_CSHL.c **** 
 416:Generated_Source\PSoC5/CapSense_1_CSHL.c **** 
 417:Generated_Source\PSoC5/CapSense_1_CSHL.c ****     /* Baseline calculation */
 418:Generated_Source\PSoC5/CapSense_1_CSHL.c ****     /* Calculate difference RawData[cur] - Baseline[prev] */
 419:Generated_Source\PSoC5/CapSense_1_CSHL.c ****     if(filteredRawData >= CapSense_1_sensorBaseline[sensor])
 228              		.loc 1 419 0
 229 000a 224A     		ldr	r2, .L30+4
 230 000c 32F81010 		ldrh	r1, [r2, r0, lsl #1]
 231 0010 8B42     		cmp	r3, r1
 232 0012 03D3     		bcc	.L20
 420:Generated_Source\PSoC5/CapSense_1_CSHL.c ****     {
 421:Generated_Source\PSoC5/CapSense_1_CSHL.c ****         tempRaw = filteredRawData - CapSense_1_sensorBaseline[sensor];
 233              		.loc 1 421 0
 234 0014 5D1A     		subs	r5, r3, r1
 235 0016 ADB2     		uxth	r5, r5
 236              	.LVL22:
 422:Generated_Source\PSoC5/CapSense_1_CSHL.c ****         widget = 1u;    /* Positive difference - Calculate the Signal */
 237              		.loc 1 422 0
 238 0018 0126     		movs	r6, #1
 239 001a 02E0     		b	.L21
 240              	.LVL23:
 241              	.L20:
 423:Generated_Source\PSoC5/CapSense_1_CSHL.c ****     }
 424:Generated_Source\PSoC5/CapSense_1_CSHL.c ****     else
 425:Generated_Source\PSoC5/CapSense_1_CSHL.c ****     {
 426:Generated_Source\PSoC5/CapSense_1_CSHL.c ****         tempRaw = CapSense_1_sensorBaseline[sensor] - filteredRawData;
 242              		.loc 1 426 0
 243 001c CD1A     		subs	r5, r1, r3
 244 001e ADB2     		uxth	r5, r5
 245              	.LVL24:
 427:Generated_Source\PSoC5/CapSense_1_CSHL.c ****         widget = 0u;    /* Negative difference - Do NOT calculate the Signal */
 246              		.loc 1 427 0
 247 0020 0026     		movs	r6, #0
 248              	.LVL25:
 249              	.L21:
 428:Generated_Source\PSoC5/CapSense_1_CSHL.c ****     }
 429:Generated_Source\PSoC5/CapSense_1_CSHL.c **** 
 430:Generated_Source\PSoC5/CapSense_1_CSHL.c ****     if((widget == 0u) && (tempRaw > (uint16) CapSense_1_NEGATIVE_NOISE_THRESHOLD))
 250              		.loc 1 430 0
ARM GAS  C:\Users\holge\AppData\Local\Temp\ccXKJRa1.s 			page 13


 251 0022 86B9     		cbnz	r6, .L22
 252              		.loc 1 430 0 is_stmt 0 discriminator 1
 253 0024 142D     		cmp	r5, #20
 254 0026 0ED9     		bls	.L22
 431:Generated_Source\PSoC5/CapSense_1_CSHL.c ****     {
 432:Generated_Source\PSoC5/CapSense_1_CSHL.c ****         if(CapSense_1_lowBaselineResetCnt[sensor] >= CapSense_1_LOW_BASELINE_RESET)
 255              		.loc 1 432 0 is_stmt 1
 256 0028 1B4B     		ldr	r3, .L30+8
 257              	.LVL26:
 258 002a 1B5D     		ldrb	r3, [r3, r4]	@ zero_extendqisi2
 259 002c 042B     		cmp	r3, #4
 260 002e 06D9     		bls	.L23
 433:Generated_Source\PSoC5/CapSense_1_CSHL.c ****         {
 434:Generated_Source\PSoC5/CapSense_1_CSHL.c ****             CapSense_1_BaseInit(sensor);
 261              		.loc 1 434 0
 262 0030 2046     		mov	r0, r4
 263              	.LVL27:
 264 0032 FFF7FEFF 		bl	CapSense_1_BaseInit
 265              	.LVL28:
 435:Generated_Source\PSoC5/CapSense_1_CSHL.c ****             CapSense_1_lowBaselineResetCnt[sensor] = 0u;
 266              		.loc 1 435 0
 267 0036 0022     		movs	r2, #0
 268 0038 174B     		ldr	r3, .L30+8
 269 003a 1A55     		strb	r2, [r3, r4]
 270 003c 17E0     		b	.L24
 271              	.LVL29:
 272              	.L23:
 436:Generated_Source\PSoC5/CapSense_1_CSHL.c ****         }
 437:Generated_Source\PSoC5/CapSense_1_CSHL.c ****         else
 438:Generated_Source\PSoC5/CapSense_1_CSHL.c ****         {
 439:Generated_Source\PSoC5/CapSense_1_CSHL.c ****             CapSense_1_lowBaselineResetCnt[sensor]++;
 273              		.loc 1 439 0
 274 003e 0133     		adds	r3, r3, #1
 275 0040 154A     		ldr	r2, .L30+8
 276 0042 1355     		strb	r3, [r2, r4]
 277 0044 13E0     		b	.L24
 278              	.LVL30:
 279              	.L22:
 440:Generated_Source\PSoC5/CapSense_1_CSHL.c ****         }
 441:Generated_Source\PSoC5/CapSense_1_CSHL.c ****     }
 442:Generated_Source\PSoC5/CapSense_1_CSHL.c ****     else
 443:Generated_Source\PSoC5/CapSense_1_CSHL.c ****     {
 444:Generated_Source\PSoC5/CapSense_1_CSHL.c ****         #if (CapSense_1_AUTO_RESET == CapSense_1_AUTO_RESET_DISABLE)
 445:Generated_Source\PSoC5/CapSense_1_CSHL.c ****             /* Update Baseline if lower that noiseThreshold */
 446:Generated_Source\PSoC5/CapSense_1_CSHL.c ****             if ( (tempRaw <= (uint16) noiseThreshold) || 
 280              		.loc 1 446 0
 281 0046 142D     		cmp	r5, #20
 282 0048 02D9     		bls	.L25
 283              		.loc 1 446 0 is_stmt 0 discriminator 1
 284 004a 132D     		cmp	r5, #19
 285 004c 0FD8     		bhi	.L24
 447:Generated_Source\PSoC5/CapSense_1_CSHL.c ****                  ((tempRaw < (uint16) CapSense_1_NEGATIVE_NOISE_THRESHOLD)
 448:Generated_Source\PSoC5/CapSense_1_CSHL.c ****                    && (widget == 0u)))
 286              		.loc 1 448 0 is_stmt 1
 287 004e 76B9     		cbnz	r6, .L24
 288              	.L25:
 289              	.LVL31:
ARM GAS  C:\Users\holge\AppData\Local\Temp\ccXKJRa1.s 			page 14


 449:Generated_Source\PSoC5/CapSense_1_CSHL.c ****             {
 450:Generated_Source\PSoC5/CapSense_1_CSHL.c ****         #endif /* (CapSense_1_AUTO_RESET == CapSense_1_AUTO_RESET_DISABLE) */
 451:Generated_Source\PSoC5/CapSense_1_CSHL.c ****                 /* Make full Baseline 23 bits */
 452:Generated_Source\PSoC5/CapSense_1_CSHL.c ****                 calc = (uint32) CapSense_1_sensorBaseline[sensor] << 8u;
 453:Generated_Source\PSoC5/CapSense_1_CSHL.c ****                 calc |= (uint32) CapSense_1_sensorBaselineLow[sensor];
 290              		.loc 1 453 0
 291 0050 1248     		ldr	r0, .L30+12
 292              	.LVL32:
 293 0052 025D     		ldrb	r2, [r0, r4]	@ zero_extendqisi2
 294 0054 42EA0122 		orr	r2, r2, r1, lsl #8
 295              	.LVL33:
 454:Generated_Source\PSoC5/CapSense_1_CSHL.c **** 
 455:Generated_Source\PSoC5/CapSense_1_CSHL.c ****                 /* Add Raw Data to Baseline */
 456:Generated_Source\PSoC5/CapSense_1_CSHL.c ****                 calc += filteredRawData;
 296              		.loc 1 456 0
 297 0058 1344     		add	r3, r3, r2
 298              	.LVL34:
 457:Generated_Source\PSoC5/CapSense_1_CSHL.c **** 
 458:Generated_Source\PSoC5/CapSense_1_CSHL.c ****                 /* Sub the high Baseline */
 459:Generated_Source\PSoC5/CapSense_1_CSHL.c ****                 calc -= CapSense_1_sensorBaseline[sensor];
 299              		.loc 1 459 0
 300 005a 5B1A     		subs	r3, r3, r1
 301              	.LVL35:
 460:Generated_Source\PSoC5/CapSense_1_CSHL.c **** 
 461:Generated_Source\PSoC5/CapSense_1_CSHL.c ****                 /* Put Baseline and BaselineLow */
 462:Generated_Source\PSoC5/CapSense_1_CSHL.c ****                 CapSense_1_sensorBaseline[sensor] = ((uint16) (calc >> 8u));
 302              		.loc 1 462 0
 303 005c C3F30F21 		ubfx	r1, r3, #8, #16
 304 0060 0C4A     		ldr	r2, .L30+4
 305 0062 22F81410 		strh	r1, [r2, r4, lsl #1]	@ movhi
 463:Generated_Source\PSoC5/CapSense_1_CSHL.c ****                 CapSense_1_sensorBaselineLow[sensor] = ((uint8) calc);
 306              		.loc 1 463 0
 307 0066 0355     		strb	r3, [r0, r4]
 464:Generated_Source\PSoC5/CapSense_1_CSHL.c **** 
 465:Generated_Source\PSoC5/CapSense_1_CSHL.c ****                 CapSense_1_lowBaselineResetCnt[sensor] = 0u;
 308              		.loc 1 465 0
 309 0068 0022     		movs	r2, #0
 310 006a 0B4B     		ldr	r3, .L30+8
 311              	.LVL36:
 312 006c 1A55     		strb	r2, [r3, r4]
 313              	.LVL37:
 314              	.L24:
 466:Generated_Source\PSoC5/CapSense_1_CSHL.c ****         #if (CapSense_1_AUTO_RESET == CapSense_1_AUTO_RESET_DISABLE)
 467:Generated_Source\PSoC5/CapSense_1_CSHL.c ****             }
 468:Generated_Source\PSoC5/CapSense_1_CSHL.c ****         #endif /* (CapSense_1_AUTO_RESET == CapSense_1_AUTO_RESET_DISABLE) */
 469:Generated_Source\PSoC5/CapSense_1_CSHL.c ****     }
 470:Generated_Source\PSoC5/CapSense_1_CSHL.c **** 
 471:Generated_Source\PSoC5/CapSense_1_CSHL.c ****     /* Calculate Signal if possitive difference > noiseThreshold */
 472:Generated_Source\PSoC5/CapSense_1_CSHL.c ****     if((tempRaw > (uint16) noiseThreshold) && (widget != 0u))
 315              		.loc 1 472 0
 316 006e 142D     		cmp	r5, #20
 317 0070 09D9     		bls	.L26
 318              		.loc 1 472 0 is_stmt 0 discriminator 1
 319 0072 46B1     		cbz	r6, .L26
 473:Generated_Source\PSoC5/CapSense_1_CSHL.c ****     {
 474:Generated_Source\PSoC5/CapSense_1_CSHL.c ****         #if (CapSense_1_SIGNAL_SIZE == CapSense_1_SIGNAL_SIZE_UINT8)
 475:Generated_Source\PSoC5/CapSense_1_CSHL.c ****             /* Over flow defence for uint8 */
ARM GAS  C:\Users\holge\AppData\Local\Temp\ccXKJRa1.s 			page 15


 476:Generated_Source\PSoC5/CapSense_1_CSHL.c ****             if (tempRaw > 0xFFu)
 320              		.loc 1 476 0 is_stmt 1
 321 0074 FF2D     		cmp	r5, #255
 322 0076 03D9     		bls	.L27
 477:Generated_Source\PSoC5/CapSense_1_CSHL.c ****             {
 478:Generated_Source\PSoC5/CapSense_1_CSHL.c ****                 CapSense_1_sensorSignal[sensor] = 0xFFu;
 323              		.loc 1 478 0
 324 0078 FF22     		movs	r2, #255
 325 007a 094B     		ldr	r3, .L30+16
 326 007c 1A55     		strb	r2, [r3, r4]
 327 007e 70BD     		pop	{r4, r5, r6, pc}
 328              	.LVL38:
 329              	.L27:
 479:Generated_Source\PSoC5/CapSense_1_CSHL.c ****             }    
 480:Generated_Source\PSoC5/CapSense_1_CSHL.c ****             else 
 481:Generated_Source\PSoC5/CapSense_1_CSHL.c ****             {
 482:Generated_Source\PSoC5/CapSense_1_CSHL.c ****                 CapSense_1_sensorSignal[sensor] = ((uint8) tempRaw);
 330              		.loc 1 482 0
 331 0080 074B     		ldr	r3, .L30+16
 332 0082 1D55     		strb	r5, [r3, r4]
 333 0084 70BD     		pop	{r4, r5, r6, pc}
 334              	.LVL39:
 335              	.L26:
 483:Generated_Source\PSoC5/CapSense_1_CSHL.c ****             }
 484:Generated_Source\PSoC5/CapSense_1_CSHL.c ****         #else
 485:Generated_Source\PSoC5/CapSense_1_CSHL.c ****             CapSense_1_sensorSignal[sensor] = ((uint16) tempRaw);
 486:Generated_Source\PSoC5/CapSense_1_CSHL.c ****         #endif  /* (CapSense_1_SIGNAL_SIZE == CapSense_1_SIGNAL_SIZE_UINT8) */
 487:Generated_Source\PSoC5/CapSense_1_CSHL.c ****     }
 488:Generated_Source\PSoC5/CapSense_1_CSHL.c ****     else
 489:Generated_Source\PSoC5/CapSense_1_CSHL.c ****     {
 490:Generated_Source\PSoC5/CapSense_1_CSHL.c ****         /* Signal is zero */
 491:Generated_Source\PSoC5/CapSense_1_CSHL.c ****         CapSense_1_sensorSignal[sensor] = 0u;
 336              		.loc 1 491 0
 337 0086 0022     		movs	r2, #0
 338 0088 054B     		ldr	r3, .L30+16
 339 008a 1A55     		strb	r2, [r3, r4]
 340 008c 70BD     		pop	{r4, r5, r6, pc}
 341              	.LVL40:
 342              	.L31:
 343 008e 00BF     		.align	2
 344              	.L30:
 345 0090 00000000 		.word	CapSense_1_sensorRaw
 346 0094 00000000 		.word	CapSense_1_sensorBaseline
 347 0098 00000000 		.word	CapSense_1_lowBaselineResetCnt
 348 009c 00000000 		.word	CapSense_1_sensorBaselineLow
 349 00a0 00000000 		.word	CapSense_1_sensorSignal
 350              		.cfi_endproc
 351              	.LFE4:
 352              		.size	CapSense_1_UpdateSensorBaseline, .-CapSense_1_UpdateSensorBaseline
 353              		.section	.text.CapSense_1_UpdateEnabledBaselines,"ax",%progbits
 354              		.align	2
 355              		.global	CapSense_1_UpdateEnabledBaselines
 356              		.thumb
 357              		.thumb_func
 358              		.type	CapSense_1_UpdateEnabledBaselines, %function
 359              	CapSense_1_UpdateEnabledBaselines:
 360              	.LFB5:
ARM GAS  C:\Users\holge\AppData\Local\Temp\ccXKJRa1.s 			page 16


 492:Generated_Source\PSoC5/CapSense_1_CSHL.c ****     }
 493:Generated_Source\PSoC5/CapSense_1_CSHL.c **** 
 494:Generated_Source\PSoC5/CapSense_1_CSHL.c ****     #if (CapSense_1_TOTAL_GENERICS_COUNT)
 495:Generated_Source\PSoC5/CapSense_1_CSHL.c ****         /* Exclude generic widget */
 496:Generated_Source\PSoC5/CapSense_1_CSHL.c ****         }
 497:Generated_Source\PSoC5/CapSense_1_CSHL.c ****     #endif  /* CapSense_1_TOTAL_GENERICS_COUNT */
 498:Generated_Source\PSoC5/CapSense_1_CSHL.c **** }
 499:Generated_Source\PSoC5/CapSense_1_CSHL.c **** 
 500:Generated_Source\PSoC5/CapSense_1_CSHL.c **** 
 501:Generated_Source\PSoC5/CapSense_1_CSHL.c **** /*******************************************************************************
 502:Generated_Source\PSoC5/CapSense_1_CSHL.c **** * Function Name: CapSense_1_UpdateEnabledBaselines
 503:Generated_Source\PSoC5/CapSense_1_CSHL.c **** ********************************************************************************
 504:Generated_Source\PSoC5/CapSense_1_CSHL.c **** *
 505:Generated_Source\PSoC5/CapSense_1_CSHL.c **** * Summary:
 506:Generated_Source\PSoC5/CapSense_1_CSHL.c **** *  Checks CapSense_1_sensorEnableMask[] array and calls the 
 507:Generated_Source\PSoC5/CapSense_1_CSHL.c **** *  CapSense_1_UpdateSensorBaseline function to update the baselines 
 508:Generated_Source\PSoC5/CapSense_1_CSHL.c **** *  for enabled sensors.
 509:Generated_Source\PSoC5/CapSense_1_CSHL.c **** *
 510:Generated_Source\PSoC5/CapSense_1_CSHL.c **** * Parameters:
 511:Generated_Source\PSoC5/CapSense_1_CSHL.c **** *  None
 512:Generated_Source\PSoC5/CapSense_1_CSHL.c **** *
 513:Generated_Source\PSoC5/CapSense_1_CSHL.c **** * Return:
 514:Generated_Source\PSoC5/CapSense_1_CSHL.c **** *  None
 515:Generated_Source\PSoC5/CapSense_1_CSHL.c **** *
 516:Generated_Source\PSoC5/CapSense_1_CSHL.c **** * Global Variables:
 517:Generated_Source\PSoC5/CapSense_1_CSHL.c **** *  CapSense_1_sensorEnableMask[] - used to store the sensor scanning 
 518:Generated_Source\PSoC5/CapSense_1_CSHL.c **** *  state.
 519:Generated_Source\PSoC5/CapSense_1_CSHL.c **** *  CapSense_1_sensorEnableMask[0] contains the masked bits for sensors 
 520:Generated_Source\PSoC5/CapSense_1_CSHL.c **** *   0 through 7 (sensor 0 is bit 0, sensor 1 is bit 1).
 521:Generated_Source\PSoC5/CapSense_1_CSHL.c **** *  CapSense_1_sensorEnableMask[1] contains the masked bits for 
 522:Generated_Source\PSoC5/CapSense_1_CSHL.c **** *  sensors 8 through 15 (if needed), and so on.
 523:Generated_Source\PSoC5/CapSense_1_CSHL.c **** *  0 - sensor doesn't scan by CapSense_1_ScanEnabledWidgets().
 524:Generated_Source\PSoC5/CapSense_1_CSHL.c **** *  1 - sensor scans by CapSense_1_ScanEnabledWidgets().
 525:Generated_Source\PSoC5/CapSense_1_CSHL.c **** *
 526:Generated_Source\PSoC5/CapSense_1_CSHL.c **** * Reentrant:
 527:Generated_Source\PSoC5/CapSense_1_CSHL.c **** *  No
 528:Generated_Source\PSoC5/CapSense_1_CSHL.c **** *
 529:Generated_Source\PSoC5/CapSense_1_CSHL.c **** *******************************************************************************/
 530:Generated_Source\PSoC5/CapSense_1_CSHL.c ****  void CapSense_1_UpdateEnabledBaselines(void)
 531:Generated_Source\PSoC5/CapSense_1_CSHL.c ****                                  
 532:Generated_Source\PSoC5/CapSense_1_CSHL.c **** {
 361              		.loc 1 532 0
 362              		.cfi_startproc
 363              		@ args = 0, pretend = 0, frame = 0
 364              		@ frame_needed = 0, uses_anonymous_args = 0
 365 0000 10B5     		push	{r4, lr}
 366              		.cfi_def_cfa_offset 8
 367              		.cfi_offset 4, -8
 368              		.cfi_offset 14, -4
 369              	.LVL41:
 533:Generated_Source\PSoC5/CapSense_1_CSHL.c ****     uint8 i;
 534:Generated_Source\PSoC5/CapSense_1_CSHL.c ****     uint8 pos;
 535:Generated_Source\PSoC5/CapSense_1_CSHL.c ****     uint8 enMask;
 536:Generated_Source\PSoC5/CapSense_1_CSHL.c ****     
 537:Generated_Source\PSoC5/CapSense_1_CSHL.c ****     for(i = 0u; i < CapSense_1_TOTAL_SENSOR_COUNT; i++)
 370              		.loc 1 537 0
 371 0002 0024     		movs	r4, #0
ARM GAS  C:\Users\holge\AppData\Local\Temp\ccXKJRa1.s 			page 17


 372 0004 0DE0     		b	.L33
 373              	.LVL42:
 374              	.L35:
 538:Generated_Source\PSoC5/CapSense_1_CSHL.c ****     {
 539:Generated_Source\PSoC5/CapSense_1_CSHL.c ****         pos = (i >> 3u);
 375              		.loc 1 539 0
 376 0006 E208     		lsrs	r2, r4, #3
 540:Generated_Source\PSoC5/CapSense_1_CSHL.c ****         enMask = (uint8)(0x01u << (i & 0x07u));
 377              		.loc 1 540 0
 378 0008 04F00701 		and	r1, r4, #7
 379 000c 0123     		movs	r3, #1
 380 000e 8B40     		lsls	r3, r3, r1
 381              	.LVL43:
 541:Generated_Source\PSoC5/CapSense_1_CSHL.c ****         if((CapSense_1_sensorEnableMask[pos] & enMask) != 0u)
 382              		.loc 1 541 0
 383 0010 0549     		ldr	r1, .L37
 384 0012 8A5C     		ldrb	r2, [r1, r2]	@ zero_extendqisi2
 385 0014 1342     		tst	r3, r2
 386 0016 02D0     		beq	.L34
 542:Generated_Source\PSoC5/CapSense_1_CSHL.c ****         {
 543:Generated_Source\PSoC5/CapSense_1_CSHL.c ****             CapSense_1_UpdateSensorBaseline(i);
 387              		.loc 1 543 0
 388 0018 2046     		mov	r0, r4
 389 001a FFF7FEFF 		bl	CapSense_1_UpdateSensorBaseline
 390              	.LVL44:
 391              	.L34:
 537:Generated_Source\PSoC5/CapSense_1_CSHL.c ****     {
 392              		.loc 1 537 0 discriminator 2
 393 001e 0134     		adds	r4, r4, #1
 394              	.LVL45:
 395 0020 E4B2     		uxtb	r4, r4
 396              	.LVL46:
 397              	.L33:
 537:Generated_Source\PSoC5/CapSense_1_CSHL.c ****     {
 398              		.loc 1 537 0 is_stmt 0 discriminator 1
 399 0022 042C     		cmp	r4, #4
 400 0024 EFD9     		bls	.L35
 544:Generated_Source\PSoC5/CapSense_1_CSHL.c ****         }
 545:Generated_Source\PSoC5/CapSense_1_CSHL.c ****     }
 546:Generated_Source\PSoC5/CapSense_1_CSHL.c **** }
 401              		.loc 1 546 0 is_stmt 1
 402 0026 10BD     		pop	{r4, pc}
 403              	.LVL47:
 404              	.L38:
 405              		.align	2
 406              	.L37:
 407 0028 00000000 		.word	CapSense_1_sensorEnableMask
 408              		.cfi_endproc
 409              	.LFE5:
 410              		.size	CapSense_1_UpdateEnabledBaselines, .-CapSense_1_UpdateEnabledBaselines
 411              		.section	.text.CapSense_1_CheckIsSensorActive,"ax",%progbits
 412              		.align	2
 413              		.global	CapSense_1_CheckIsSensorActive
 414              		.thumb
 415              		.thumb_func
 416              		.type	CapSense_1_CheckIsSensorActive, %function
 417              	CapSense_1_CheckIsSensorActive:
ARM GAS  C:\Users\holge\AppData\Local\Temp\ccXKJRa1.s 			page 18


 418              	.LFB6:
 547:Generated_Source\PSoC5/CapSense_1_CSHL.c **** 
 548:Generated_Source\PSoC5/CapSense_1_CSHL.c **** 
 549:Generated_Source\PSoC5/CapSense_1_CSHL.c **** /*******************************************************************************
 550:Generated_Source\PSoC5/CapSense_1_CSHL.c **** * Function Name: CapSense_1_CheckIsSensorActive
 551:Generated_Source\PSoC5/CapSense_1_CSHL.c **** ********************************************************************************
 552:Generated_Source\PSoC5/CapSense_1_CSHL.c **** *
 553:Generated_Source\PSoC5/CapSense_1_CSHL.c **** * Summary:
 554:Generated_Source\PSoC5/CapSense_1_CSHL.c **** *  Compares the CapSense_1_SensorSignal[sensor] array element to finger
 555:Generated_Source\PSoC5/CapSense_1_CSHL.c **** *  threshold of widget it belongs to. The hysteresis and debounce are taken into 
 556:Generated_Source\PSoC5/CapSense_1_CSHL.c **** *  account. The hysteresis is added or subtracted from the finger threshold 
 557:Generated_Source\PSoC5/CapSense_1_CSHL.c **** *  based on whether the sensor is currently active. 
 558:Generated_Source\PSoC5/CapSense_1_CSHL.c **** *  If the sensor is active, the threshold is lowered by the hysteresis amount.
 559:Generated_Source\PSoC5/CapSense_1_CSHL.c **** *  If the sensor is inactive, the threshold is raised by the hysteresis amount.
 560:Generated_Source\PSoC5/CapSense_1_CSHL.c **** *  The debounce counter added to the sensor active transition.
 561:Generated_Source\PSoC5/CapSense_1_CSHL.c **** *  This function updates CapSense_1_SensorOnMask[] array element.
 562:Generated_Source\PSoC5/CapSense_1_CSHL.c **** *
 563:Generated_Source\PSoC5/CapSense_1_CSHL.c **** * Parameters:
 564:Generated_Source\PSoC5/CapSense_1_CSHL.c **** *  sensor:  Sensor number.
 565:Generated_Source\PSoC5/CapSense_1_CSHL.c **** *
 566:Generated_Source\PSoC5/CapSense_1_CSHL.c **** * Return:
 567:Generated_Source\PSoC5/CapSense_1_CSHL.c **** *  Returns sensor state 1 if active, 0 if not active.
 568:Generated_Source\PSoC5/CapSense_1_CSHL.c **** *
 569:Generated_Source\PSoC5/CapSense_1_CSHL.c **** * Global Variables:
 570:Generated_Source\PSoC5/CapSense_1_CSHL.c **** *  CapSense_1_sensorSignal[]      - used to store diffence between 
 571:Generated_Source\PSoC5/CapSense_1_CSHL.c **** *  current value of raw data and previous value of baseline.
 572:Generated_Source\PSoC5/CapSense_1_CSHL.c **** *  CapSense_1_debounceCounter[]   - used to store current debounce 
 573:Generated_Source\PSoC5/CapSense_1_CSHL.c **** *  counter of sensor. Widget which has this parameter are buttons, matrix 
 574:Generated_Source\PSoC5/CapSense_1_CSHL.c **** *  buttons, proximity, guard. All other widgets haven't debounce parameter
 575:Generated_Source\PSoC5/CapSense_1_CSHL.c **** *  and use the last element of this array with value 0 (it means no debounce).
 576:Generated_Source\PSoC5/CapSense_1_CSHL.c **** *  CapSense_1_sensorOnMask[] - used to store sensors on/off state.
 577:Generated_Source\PSoC5/CapSense_1_CSHL.c **** *  CapSense_1_sensorOnMask[0] contains the masked bits for sensors 
 578:Generated_Source\PSoC5/CapSense_1_CSHL.c **** *   0 through 7 (sensor 0 is bit 0, sensor 1 is bit 1).
 579:Generated_Source\PSoC5/CapSense_1_CSHL.c **** *  CapSense_1_sensorEnableMask[1] contains the masked bits for 
 580:Generated_Source\PSoC5/CapSense_1_CSHL.c **** *  sensors 8 through 15 (if needed), and so on.
 581:Generated_Source\PSoC5/CapSense_1_CSHL.c **** *  0 - sensor is inactive.
 582:Generated_Source\PSoC5/CapSense_1_CSHL.c **** *  1 - sensor is active.
 583:Generated_Source\PSoC5/CapSense_1_CSHL.c **** *
 584:Generated_Source\PSoC5/CapSense_1_CSHL.c **** * Reentrant:
 585:Generated_Source\PSoC5/CapSense_1_CSHL.c **** *  No
 586:Generated_Source\PSoC5/CapSense_1_CSHL.c **** *
 587:Generated_Source\PSoC5/CapSense_1_CSHL.c **** *******************************************************************************/
 588:Generated_Source\PSoC5/CapSense_1_CSHL.c **** uint8 CapSense_1_CheckIsSensorActive(uint8 sensor)
 589:Generated_Source\PSoC5/CapSense_1_CSHL.c ****                                   
 590:Generated_Source\PSoC5/CapSense_1_CSHL.c **** {
 419              		.loc 1 590 0
 420              		.cfi_startproc
 421              		@ args = 0, pretend = 0, frame = 0
 422              		@ frame_needed = 0, uses_anonymous_args = 0
 423              		@ link register save eliminated.
 424              	.LVL48:
 425 0000 10B4     		push	{r4}
 426              		.cfi_def_cfa_offset 4
 427              		.cfi_offset 4, -4
 591:Generated_Source\PSoC5/CapSense_1_CSHL.c ****     uint8 debounceIndex;
 592:Generated_Source\PSoC5/CapSense_1_CSHL.c ****     /* Get On/Off mask */
 593:Generated_Source\PSoC5/CapSense_1_CSHL.c ****     uint8 pos = (sensor >> 3u);
ARM GAS  C:\Users\holge\AppData\Local\Temp\ccXKJRa1.s 			page 19


 428              		.loc 1 593 0
 429 0002 C208     		lsrs	r2, r0, #3
 430              	.LVL49:
 594:Generated_Source\PSoC5/CapSense_1_CSHL.c ****     uint8 onMask = 0x01u << (sensor & 0x07u);
 431              		.loc 1 594 0
 432 0004 00F00703 		and	r3, r0, #7
 433 0008 0121     		movs	r1, #1
 434 000a 01FA03F3 		lsl	r3, r1, r3
 435 000e DBB2     		uxtb	r3, r3
 436              	.LVL50:
 595:Generated_Source\PSoC5/CapSense_1_CSHL.c ****     /* Prepare to find debounce counter index */
 596:Generated_Source\PSoC5/CapSense_1_CSHL.c ****     uint8 widget = CapSense_1_widgetNumber[sensor];
 597:Generated_Source\PSoC5/CapSense_1_CSHL.c ****     uint8 fingerThreshold = CapSense_1_fingerThreshold[widget];
 598:Generated_Source\PSoC5/CapSense_1_CSHL.c ****     uint8 hysteresis = CapSense_1_hysteresis[widget];
 599:Generated_Source\PSoC5/CapSense_1_CSHL.c ****     uint8 debounce = CapSense_1_debounce[widget];
 600:Generated_Source\PSoC5/CapSense_1_CSHL.c ****     
 601:Generated_Source\PSoC5/CapSense_1_CSHL.c ****     debounceIndex = CapSense_1_UNUSED_DEBOUNCE_COUNTER_INDEX;
 602:Generated_Source\PSoC5/CapSense_1_CSHL.c ****     CapSense_1_debounceCounter[debounceIndex] = 1u;
 437              		.loc 1 602 0
 438 0010 0F4C     		ldr	r4, .L44
 439 0012 2170     		strb	r1, [r4]
 603:Generated_Source\PSoC5/CapSense_1_CSHL.c **** 
 604:Generated_Source\PSoC5/CapSense_1_CSHL.c ****     
 605:Generated_Source\PSoC5/CapSense_1_CSHL.c ****     /* Was on */
 606:Generated_Source\PSoC5/CapSense_1_CSHL.c ****     if (0u != (CapSense_1_sensorOnMask[pos] & onMask))
 440              		.loc 1 606 0
 441 0014 0F49     		ldr	r1, .L44+4
 442 0016 895C     		ldrb	r1, [r1, r2]	@ zero_extendqisi2
 443 0018 0B42     		tst	r3, r1
 444 001a 08D0     		beq	.L40
 607:Generated_Source\PSoC5/CapSense_1_CSHL.c ****     {
 608:Generated_Source\PSoC5/CapSense_1_CSHL.c ****         /* Hysteresis minus */
 609:Generated_Source\PSoC5/CapSense_1_CSHL.c ****         if (CapSense_1_sensorSignal[sensor] < (fingerThreshold - hysteresis))
 445              		.loc 1 609 0
 446 001c 0E4C     		ldr	r4, .L44+8
 447 001e 205C     		ldrb	r0, [r4, r0]	@ zero_extendqisi2
 448              	.LVL51:
 449 0020 6328     		cmp	r0, #99
 450 0022 0EDC     		bgt	.L41
 610:Generated_Source\PSoC5/CapSense_1_CSHL.c ****         {
 611:Generated_Source\PSoC5/CapSense_1_CSHL.c ****             CapSense_1_sensorOnMask[pos] &= (uint8)~onMask;
 451              		.loc 1 611 0
 452 0024 21EA0301 		bic	r1, r1, r3
 453 0028 0A48     		ldr	r0, .L44+4
 454 002a 8154     		strb	r1, [r0, r2]
 455 002c 09E0     		b	.L41
 456              	.LVL52:
 457              	.L40:
 612:Generated_Source\PSoC5/CapSense_1_CSHL.c ****             CapSense_1_debounceCounter[debounceIndex] = debounce; 
 613:Generated_Source\PSoC5/CapSense_1_CSHL.c ****         }
 614:Generated_Source\PSoC5/CapSense_1_CSHL.c ****     }
 615:Generated_Source\PSoC5/CapSense_1_CSHL.c ****     else    /* Was off */
 616:Generated_Source\PSoC5/CapSense_1_CSHL.c ****     {
 617:Generated_Source\PSoC5/CapSense_1_CSHL.c ****         /* Hysteresis plus */
 618:Generated_Source\PSoC5/CapSense_1_CSHL.c ****         if (CapSense_1_sensorSignal[sensor] > (fingerThreshold + hysteresis))
 458              		.loc 1 618 0
 459 002e 0A4C     		ldr	r4, .L44+8
ARM GAS  C:\Users\holge\AppData\Local\Temp\ccXKJRa1.s 			page 20


 460 0030 205C     		ldrb	r0, [r4, r0]	@ zero_extendqisi2
 461              	.LVL53:
 462 0032 6428     		cmp	r0, #100
 463 0034 05DD     		ble	.L41
 619:Generated_Source\PSoC5/CapSense_1_CSHL.c ****         {
 620:Generated_Source\PSoC5/CapSense_1_CSHL.c ****             /* Sensor active, decrement debounce counter */
 621:Generated_Source\PSoC5/CapSense_1_CSHL.c ****             if (CapSense_1_debounceCounter[debounceIndex] <= 1u)
 622:Generated_Source\PSoC5/CapSense_1_CSHL.c ****             {
 623:Generated_Source\PSoC5/CapSense_1_CSHL.c ****                 CapSense_1_sensorOnMask[pos] |= onMask; 
 464              		.loc 1 623 0
 465 0036 1943     		orrs	r1, r1, r3
 466 0038 0648     		ldr	r0, .L44+4
 467 003a 8154     		strb	r1, [r0, r2]
 624:Generated_Source\PSoC5/CapSense_1_CSHL.c ****             }
 625:Generated_Source\PSoC5/CapSense_1_CSHL.c ****             CapSense_1_debounceCounter[debounceIndex]--;
 468              		.loc 1 625 0
 469 003c 0020     		movs	r0, #0
 470 003e 0449     		ldr	r1, .L44
 471 0040 0870     		strb	r0, [r1]
 472              	.L41:
 626:Generated_Source\PSoC5/CapSense_1_CSHL.c ****         }
 627:Generated_Source\PSoC5/CapSense_1_CSHL.c ****         else
 628:Generated_Source\PSoC5/CapSense_1_CSHL.c ****         {
 629:Generated_Source\PSoC5/CapSense_1_CSHL.c ****             /* Sensor inactive - reset Debounce counter */
 630:Generated_Source\PSoC5/CapSense_1_CSHL.c ****             CapSense_1_debounceCounter[debounceIndex] = debounce;
 631:Generated_Source\PSoC5/CapSense_1_CSHL.c ****         }
 632:Generated_Source\PSoC5/CapSense_1_CSHL.c ****     }
 633:Generated_Source\PSoC5/CapSense_1_CSHL.c ****     
 634:Generated_Source\PSoC5/CapSense_1_CSHL.c ****     return (((CapSense_1_sensorOnMask[pos] & onMask) != 0u) ? 1u : 0u);
 473              		.loc 1 634 0
 474 0042 0449     		ldr	r1, .L44+4
 475 0044 885C     		ldrb	r0, [r1, r2]	@ zero_extendqisi2
 476 0046 1840     		ands	r0, r3, r0
 477 0048 00D0     		beq	.L42
 478 004a 0120     		movs	r0, #1
 479              	.L42:
 635:Generated_Source\PSoC5/CapSense_1_CSHL.c **** }
 480              		.loc 1 635 0 discriminator 4
 481 004c 10BC     		pop	{r4}
 482              		.cfi_restore 4
 483              		.cfi_def_cfa_offset 0
 484 004e 7047     		bx	lr
 485              	.L45:
 486              		.align	2
 487              	.L44:
 488 0050 00000000 		.word	.LANCHOR0
 489 0054 00000000 		.word	CapSense_1_sensorOnMask
 490 0058 00000000 		.word	CapSense_1_sensorSignal
 491              		.cfi_endproc
 492              	.LFE6:
 493              		.size	CapSense_1_CheckIsSensorActive, .-CapSense_1_CheckIsSensorActive
 494              		.section	.text.CapSense_1_CheckIsWidgetActive,"ax",%progbits
 495              		.align	2
 496              		.global	CapSense_1_CheckIsWidgetActive
 497              		.thumb
 498              		.thumb_func
 499              		.type	CapSense_1_CheckIsWidgetActive, %function
ARM GAS  C:\Users\holge\AppData\Local\Temp\ccXKJRa1.s 			page 21


 500              	CapSense_1_CheckIsWidgetActive:
 501              	.LFB7:
 636:Generated_Source\PSoC5/CapSense_1_CSHL.c **** 
 637:Generated_Source\PSoC5/CapSense_1_CSHL.c **** 
 638:Generated_Source\PSoC5/CapSense_1_CSHL.c **** /*******************************************************************************
 639:Generated_Source\PSoC5/CapSense_1_CSHL.c **** * Function Name: CapSense_1_CheckIsWidgetActive
 640:Generated_Source\PSoC5/CapSense_1_CSHL.c **** ********************************************************************************
 641:Generated_Source\PSoC5/CapSense_1_CSHL.c **** *
 642:Generated_Source\PSoC5/CapSense_1_CSHL.c **** * Summary:
 643:Generated_Source\PSoC5/CapSense_1_CSHL.c **** *  Use function CapSense_1_CheckIsSensorActive() to update 
 644:Generated_Source\PSoC5/CapSense_1_CSHL.c **** *  CapSense_1_sensorOnMask[] for all sensors within the widget.
 645:Generated_Source\PSoC5/CapSense_1_CSHL.c **** *  If one of sensors within widget is active the function return that widget is 
 646:Generated_Source\PSoC5/CapSense_1_CSHL.c **** *  active.
 647:Generated_Source\PSoC5/CapSense_1_CSHL.c **** *  The touch pad and matrix buttons widgets need to have active sensor within 
 648:Generated_Source\PSoC5/CapSense_1_CSHL.c **** *  col and row to return widget active status.
 649:Generated_Source\PSoC5/CapSense_1_CSHL.c **** *
 650:Generated_Source\PSoC5/CapSense_1_CSHL.c **** * Parameters:
 651:Generated_Source\PSoC5/CapSense_1_CSHL.c **** *  widget:  widget number.
 652:Generated_Source\PSoC5/CapSense_1_CSHL.c **** *
 653:Generated_Source\PSoC5/CapSense_1_CSHL.c **** * Return:
 654:Generated_Source\PSoC5/CapSense_1_CSHL.c **** *  Returns widget sensor state 1 if one or more sensors within widget is/are 
 655:Generated_Source\PSoC5/CapSense_1_CSHL.c **** *  active, 0 if all sensors within widget are inactive.
 656:Generated_Source\PSoC5/CapSense_1_CSHL.c **** *
 657:Generated_Source\PSoC5/CapSense_1_CSHL.c **** * Reentrant:
 658:Generated_Source\PSoC5/CapSense_1_CSHL.c **** *  No
 659:Generated_Source\PSoC5/CapSense_1_CSHL.c **** *
 660:Generated_Source\PSoC5/CapSense_1_CSHL.c **** *******************************************************************************/
 661:Generated_Source\PSoC5/CapSense_1_CSHL.c **** uint8 CapSense_1_CheckIsWidgetActive(uint8 widget)
 662:Generated_Source\PSoC5/CapSense_1_CSHL.c ****                                  
 663:Generated_Source\PSoC5/CapSense_1_CSHL.c **** {
 502              		.loc 1 663 0
 503              		.cfi_startproc
 504              		@ args = 0, pretend = 0, frame = 0
 505              		@ frame_needed = 0, uses_anonymous_args = 0
 506              	.LVL54:
 507 0000 38B5     		push	{r3, r4, r5, lr}
 508              		.cfi_def_cfa_offset 16
 509              		.cfi_offset 3, -16
 510              		.cfi_offset 4, -12
 511              		.cfi_offset 5, -8
 512              		.cfi_offset 14, -4
 513              	.LVL55:
 664:Generated_Source\PSoC5/CapSense_1_CSHL.c ****     uint8 rawIndex = CapSense_1_rawDataIndex[widget];
 665:Generated_Source\PSoC5/CapSense_1_CSHL.c ****     uint8 numberOfSensors = CapSense_1_numberOfSensors[widget] + rawIndex;
 666:Generated_Source\PSoC5/CapSense_1_CSHL.c ****     uint8 state = 0u;
 514              		.loc 1 666 0
 515 0002 0025     		movs	r5, #0
 664:Generated_Source\PSoC5/CapSense_1_CSHL.c ****     uint8 rawIndex = CapSense_1_rawDataIndex[widget];
 516              		.loc 1 664 0
 517 0004 2C46     		mov	r4, r5
 518              	.LVL56:
 519              	.L48:
 667:Generated_Source\PSoC5/CapSense_1_CSHL.c **** 
 668:Generated_Source\PSoC5/CapSense_1_CSHL.c ****     /* Check all sensors of the widget */
 669:Generated_Source\PSoC5/CapSense_1_CSHL.c ****     do
 670:Generated_Source\PSoC5/CapSense_1_CSHL.c ****     {
 671:Generated_Source\PSoC5/CapSense_1_CSHL.c ****         if(CapSense_1_CheckIsSensorActive(rawIndex) != 0u)
ARM GAS  C:\Users\holge\AppData\Local\Temp\ccXKJRa1.s 			page 22


 520              		.loc 1 671 0
 521 0006 2046     		mov	r0, r4
 522 0008 FFF7FEFF 		bl	CapSense_1_CheckIsSensorActive
 523              	.LVL57:
 524 000c 00B1     		cbz	r0, .L47
 672:Generated_Source\PSoC5/CapSense_1_CSHL.c ****         {
 673:Generated_Source\PSoC5/CapSense_1_CSHL.c ****             state = CapSense_1_SENSOR_1_IS_ACTIVE;
 525              		.loc 1 673 0
 526 000e 0125     		movs	r5, #1
 527              	.LVL58:
 528              	.L47:
 674:Generated_Source\PSoC5/CapSense_1_CSHL.c ****         }
 675:Generated_Source\PSoC5/CapSense_1_CSHL.c ****         rawIndex++;
 529              		.loc 1 675 0
 530 0010 0134     		adds	r4, r4, #1
 531              	.LVL59:
 532 0012 E4B2     		uxtb	r4, r4
 533              	.LVL60:
 676:Generated_Source\PSoC5/CapSense_1_CSHL.c ****     }
 677:Generated_Source\PSoC5/CapSense_1_CSHL.c ****     while(rawIndex < numberOfSensors);
 534              		.loc 1 677 0
 535 0014 042C     		cmp	r4, #4
 536 0016 F6D9     		bls	.L48
 678:Generated_Source\PSoC5/CapSense_1_CSHL.c ****     
 679:Generated_Source\PSoC5/CapSense_1_CSHL.c **** 
 680:Generated_Source\PSoC5/CapSense_1_CSHL.c ****     
 681:Generated_Source\PSoC5/CapSense_1_CSHL.c ****     return (state);
 682:Generated_Source\PSoC5/CapSense_1_CSHL.c **** }
 537              		.loc 1 682 0
 538 0018 2846     		mov	r0, r5
 539 001a 38BD     		pop	{r3, r4, r5, pc}
 540              		.cfi_endproc
 541              	.LFE7:
 542              		.size	CapSense_1_CheckIsWidgetActive, .-CapSense_1_CheckIsWidgetActive
 543              		.section	.text.CapSense_1_CheckIsAnyWidgetActive,"ax",%progbits
 544              		.align	2
 545              		.global	CapSense_1_CheckIsAnyWidgetActive
 546              		.thumb
 547              		.thumb_func
 548              		.type	CapSense_1_CheckIsAnyWidgetActive, %function
 549              	CapSense_1_CheckIsAnyWidgetActive:
 550              	.LFB8:
 683:Generated_Source\PSoC5/CapSense_1_CSHL.c **** 
 684:Generated_Source\PSoC5/CapSense_1_CSHL.c **** 
 685:Generated_Source\PSoC5/CapSense_1_CSHL.c **** /*******************************************************************************
 686:Generated_Source\PSoC5/CapSense_1_CSHL.c **** * Function Name: CapSense_1_CheckIsAnyWidgetActive
 687:Generated_Source\PSoC5/CapSense_1_CSHL.c **** ********************************************************************************
 688:Generated_Source\PSoC5/CapSense_1_CSHL.c **** *
 689:Generated_Source\PSoC5/CapSense_1_CSHL.c **** * Summary:
 690:Generated_Source\PSoC5/CapSense_1_CSHL.c **** *  Compares all sensors of the CapSense_1_signal[] array to their finger 
 691:Generated_Source\PSoC5/CapSense_1_CSHL.c **** *  threshold. Calls CapSense_1_CheckIsWidgetActive() for each widget so 
 692:Generated_Source\PSoC5/CapSense_1_CSHL.c **** *  the CapSense_1_SensorOnMask[] array is up to date after calling this 
 693:Generated_Source\PSoC5/CapSense_1_CSHL.c **** *  function.
 694:Generated_Source\PSoC5/CapSense_1_CSHL.c **** *
 695:Generated_Source\PSoC5/CapSense_1_CSHL.c **** * Parameters:
 696:Generated_Source\PSoC5/CapSense_1_CSHL.c **** *  widget:  widget number.
 697:Generated_Source\PSoC5/CapSense_1_CSHL.c **** *
ARM GAS  C:\Users\holge\AppData\Local\Temp\ccXKJRa1.s 			page 23


 698:Generated_Source\PSoC5/CapSense_1_CSHL.c **** * Return:
 699:Generated_Source\PSoC5/CapSense_1_CSHL.c **** *  Returns 1 if any widget is active, 0 none of widgets are active.
 700:Generated_Source\PSoC5/CapSense_1_CSHL.c **** *
 701:Generated_Source\PSoC5/CapSense_1_CSHL.c **** * Reentrant:
 702:Generated_Source\PSoC5/CapSense_1_CSHL.c **** *  No
 703:Generated_Source\PSoC5/CapSense_1_CSHL.c **** *
 704:Generated_Source\PSoC5/CapSense_1_CSHL.c **** *******************************************************************************/
 705:Generated_Source\PSoC5/CapSense_1_CSHL.c **** uint8 CapSense_1_CheckIsAnyWidgetActive(void)
 706:Generated_Source\PSoC5/CapSense_1_CSHL.c ****                                  
 707:Generated_Source\PSoC5/CapSense_1_CSHL.c **** {
 551              		.loc 1 707 0
 552              		.cfi_startproc
 553              		@ args = 0, pretend = 0, frame = 0
 554              		@ frame_needed = 0, uses_anonymous_args = 0
 555 0000 38B5     		push	{r3, r4, r5, lr}
 556              		.cfi_def_cfa_offset 16
 557              		.cfi_offset 3, -16
 558              		.cfi_offset 4, -12
 559              		.cfi_offset 5, -8
 560              		.cfi_offset 14, -4
 561              	.LVL61:
 708:Generated_Source\PSoC5/CapSense_1_CSHL.c ****     uint8 i;
 709:Generated_Source\PSoC5/CapSense_1_CSHL.c ****     uint8 state = 0u;
 562              		.loc 1 709 0
 563 0002 0025     		movs	r5, #0
 710:Generated_Source\PSoC5/CapSense_1_CSHL.c ****     
 711:Generated_Source\PSoC5/CapSense_1_CSHL.c ****     for(i = 0u; i < CapSense_1_TOTAL_WIDGET_COUNT; i++)
 564              		.loc 1 711 0
 565 0004 2C46     		mov	r4, r5
 566 0006 06E0     		b	.L52
 567              	.LVL62:
 568              	.L54:
 712:Generated_Source\PSoC5/CapSense_1_CSHL.c ****     {
 713:Generated_Source\PSoC5/CapSense_1_CSHL.c ****         if (CapSense_1_CheckIsWidgetActive(i) != 0u)
 569              		.loc 1 713 0
 570 0008 2046     		mov	r0, r4
 571 000a FFF7FEFF 		bl	CapSense_1_CheckIsWidgetActive
 572              	.LVL63:
 573 000e 00B1     		cbz	r0, .L53
 714:Generated_Source\PSoC5/CapSense_1_CSHL.c ****         {
 715:Generated_Source\PSoC5/CapSense_1_CSHL.c ****             state = CapSense_1_WIDGET_IS_ACTIVE;
 574              		.loc 1 715 0
 575 0010 0125     		movs	r5, #1
 576              	.LVL64:
 577              	.L53:
 711:Generated_Source\PSoC5/CapSense_1_CSHL.c ****     {
 578              		.loc 1 711 0 discriminator 2
 579 0012 0134     		adds	r4, r4, #1
 580              	.LVL65:
 581 0014 E4B2     		uxtb	r4, r4
 582              	.LVL66:
 583              	.L52:
 711:Generated_Source\PSoC5/CapSense_1_CSHL.c ****     {
 584              		.loc 1 711 0 is_stmt 0 discriminator 1
 585 0016 002C     		cmp	r4, #0
 586 0018 F6D0     		beq	.L54
 716:Generated_Source\PSoC5/CapSense_1_CSHL.c ****         }
ARM GAS  C:\Users\holge\AppData\Local\Temp\ccXKJRa1.s 			page 24


 717:Generated_Source\PSoC5/CapSense_1_CSHL.c ****     }
 718:Generated_Source\PSoC5/CapSense_1_CSHL.c ****     
 719:Generated_Source\PSoC5/CapSense_1_CSHL.c **** 
 720:Generated_Source\PSoC5/CapSense_1_CSHL.c ****     return (state);
 721:Generated_Source\PSoC5/CapSense_1_CSHL.c **** }
 587              		.loc 1 721 0 is_stmt 1
 588 001a 2846     		mov	r0, r5
 589 001c 38BD     		pop	{r3, r4, r5, pc}
 590              		.cfi_endproc
 591              	.LFE8:
 592              		.size	CapSense_1_CheckIsAnyWidgetActive, .-CapSense_1_CheckIsAnyWidgetActive
 593 001e 00BF     		.section	.text.CapSense_1_EnableWidget,"ax",%progbits
 594              		.align	2
 595              		.global	CapSense_1_EnableWidget
 596              		.thumb
 597              		.thumb_func
 598              		.type	CapSense_1_EnableWidget, %function
 599              	CapSense_1_EnableWidget:
 600              	.LFB9:
 722:Generated_Source\PSoC5/CapSense_1_CSHL.c **** 
 723:Generated_Source\PSoC5/CapSense_1_CSHL.c **** 
 724:Generated_Source\PSoC5/CapSense_1_CSHL.c **** /*******************************************************************************
 725:Generated_Source\PSoC5/CapSense_1_CSHL.c **** * Function Name: CapSense_1_EnableWidget
 726:Generated_Source\PSoC5/CapSense_1_CSHL.c **** ********************************************************************************
 727:Generated_Source\PSoC5/CapSense_1_CSHL.c **** *
 728:Generated_Source\PSoC5/CapSense_1_CSHL.c **** * Summary:
 729:Generated_Source\PSoC5/CapSense_1_CSHL.c **** *  Enable all widget elements (sensors) to scanning process.
 730:Generated_Source\PSoC5/CapSense_1_CSHL.c **** *
 731:Generated_Source\PSoC5/CapSense_1_CSHL.c **** * Parameters:
 732:Generated_Source\PSoC5/CapSense_1_CSHL.c **** *  widget:  widget number.
 733:Generated_Source\PSoC5/CapSense_1_CSHL.c **** *
 734:Generated_Source\PSoC5/CapSense_1_CSHL.c **** * Return:
 735:Generated_Source\PSoC5/CapSense_1_CSHL.c **** *  None
 736:Generated_Source\PSoC5/CapSense_1_CSHL.c **** *
 737:Generated_Source\PSoC5/CapSense_1_CSHL.c **** * Global Variables:
 738:Generated_Source\PSoC5/CapSense_1_CSHL.c **** *  CapSense_1_sensorEnableMask[] - used to store the sensor scanning 
 739:Generated_Source\PSoC5/CapSense_1_CSHL.c **** *  state.
 740:Generated_Source\PSoC5/CapSense_1_CSHL.c **** *  CapSense_1_sensorEnableMask[0] contains the masked bits for sensors 
 741:Generated_Source\PSoC5/CapSense_1_CSHL.c **** *  0 through 7 (sensor 0 is bit 0, sensor 1 is bit 1).
 742:Generated_Source\PSoC5/CapSense_1_CSHL.c **** *  CapSense_1_sensorEnableMask[1] contains the masked bits for 
 743:Generated_Source\PSoC5/CapSense_1_CSHL.c **** *  sensors 8 through 15 (if needed), and so on.
 744:Generated_Source\PSoC5/CapSense_1_CSHL.c **** *  0 - sensor doesn't scan by CapSense_1_ScanEnabledWidgets().
 745:Generated_Source\PSoC5/CapSense_1_CSHL.c **** *  1 - sensor scans by CapSense_1_ScanEnabledWidgets().
 746:Generated_Source\PSoC5/CapSense_1_CSHL.c **** *
 747:Generated_Source\PSoC5/CapSense_1_CSHL.c **** * Reentrant:
 748:Generated_Source\PSoC5/CapSense_1_CSHL.c **** *  No
 749:Generated_Source\PSoC5/CapSense_1_CSHL.c **** *
 750:Generated_Source\PSoC5/CapSense_1_CSHL.c **** *******************************************************************************/
 751:Generated_Source\PSoC5/CapSense_1_CSHL.c **** void CapSense_1_EnableWidget(uint8 widget)
 752:Generated_Source\PSoC5/CapSense_1_CSHL.c ****                                    
 753:Generated_Source\PSoC5/CapSense_1_CSHL.c **** {
 601              		.loc 1 753 0
 602              		.cfi_startproc
 603              		@ args = 0, pretend = 0, frame = 0
 604              		@ frame_needed = 0, uses_anonymous_args = 0
 605              		@ link register save eliminated.
 606              	.LVL67:
ARM GAS  C:\Users\holge\AppData\Local\Temp\ccXKJRa1.s 			page 25


 607 0000 10B4     		push	{r4}
 608              		.cfi_def_cfa_offset 4
 609              		.cfi_offset 4, -4
 610              	.LVL68:
 754:Generated_Source\PSoC5/CapSense_1_CSHL.c ****     uint8 pos;
 755:Generated_Source\PSoC5/CapSense_1_CSHL.c ****     uint8 enMask;
 756:Generated_Source\PSoC5/CapSense_1_CSHL.c ****     uint8 rawIndex = CapSense_1_rawDataIndex[widget];
 611              		.loc 1 756 0
 612 0002 0023     		movs	r3, #0
 613              	.LVL69:
 614              	.L58:
 757:Generated_Source\PSoC5/CapSense_1_CSHL.c ****     uint8 numberOfSensors = CapSense_1_numberOfSensors[widget] + rawIndex;
 758:Generated_Source\PSoC5/CapSense_1_CSHL.c ****     
 759:Generated_Source\PSoC5/CapSense_1_CSHL.c ****     /* Enable all sensors of the widget */
 760:Generated_Source\PSoC5/CapSense_1_CSHL.c ****     do
 761:Generated_Source\PSoC5/CapSense_1_CSHL.c ****     {
 762:Generated_Source\PSoC5/CapSense_1_CSHL.c ****         pos = (rawIndex >> 3u);
 615              		.loc 1 762 0 discriminator 1
 616 0004 D808     		lsrs	r0, r3, #3
 617              	.LVL70:
 763:Generated_Source\PSoC5/CapSense_1_CSHL.c ****         enMask = 0x01u << (rawIndex & 0x07u);
 618              		.loc 1 763 0 discriminator 1
 619 0006 03F00701 		and	r1, r3, #7
 620 000a 0122     		movs	r2, #1
 621 000c 8A40     		lsls	r2, r2, r1
 622 000e D2B2     		uxtb	r2, r2
 623              	.LVL71:
 764:Generated_Source\PSoC5/CapSense_1_CSHL.c ****         
 765:Generated_Source\PSoC5/CapSense_1_CSHL.c ****         CapSense_1_sensorEnableMask[pos] |= enMask;
 624              		.loc 1 765 0 discriminator 1
 625 0010 044C     		ldr	r4, .L60
 626 0012 215C     		ldrb	r1, [r4, r0]	@ zero_extendqisi2
 627 0014 0A43     		orrs	r2, r2, r1
 628              	.LVL72:
 629 0016 2254     		strb	r2, [r4, r0]
 766:Generated_Source\PSoC5/CapSense_1_CSHL.c ****         rawIndex++;
 630              		.loc 1 766 0 discriminator 1
 631 0018 0133     		adds	r3, r3, #1
 632              	.LVL73:
 633 001a DBB2     		uxtb	r3, r3
 634              	.LVL74:
 767:Generated_Source\PSoC5/CapSense_1_CSHL.c ****     }
 768:Generated_Source\PSoC5/CapSense_1_CSHL.c ****     while(rawIndex < numberOfSensors);
 635              		.loc 1 768 0 discriminator 1
 636 001c 042B     		cmp	r3, #4
 637 001e F1D9     		bls	.L58
 769:Generated_Source\PSoC5/CapSense_1_CSHL.c ****     
 770:Generated_Source\PSoC5/CapSense_1_CSHL.c **** 
 771:Generated_Source\PSoC5/CapSense_1_CSHL.c **** }
 638              		.loc 1 771 0
 639 0020 10BC     		pop	{r4}
 640              		.cfi_restore 4
 641              		.cfi_def_cfa_offset 0
 642 0022 7047     		bx	lr
 643              	.L61:
 644              		.align	2
 645              	.L60:
ARM GAS  C:\Users\holge\AppData\Local\Temp\ccXKJRa1.s 			page 26


 646 0024 00000000 		.word	CapSense_1_sensorEnableMask
 647              		.cfi_endproc
 648              	.LFE9:
 649              		.size	CapSense_1_EnableWidget, .-CapSense_1_EnableWidget
 650              		.section	.text.CapSense_1_DisableWidget,"ax",%progbits
 651              		.align	2
 652              		.global	CapSense_1_DisableWidget
 653              		.thumb
 654              		.thumb_func
 655              		.type	CapSense_1_DisableWidget, %function
 656              	CapSense_1_DisableWidget:
 657              	.LFB10:
 772:Generated_Source\PSoC5/CapSense_1_CSHL.c **** 
 773:Generated_Source\PSoC5/CapSense_1_CSHL.c **** 
 774:Generated_Source\PSoC5/CapSense_1_CSHL.c **** /*******************************************************************************
 775:Generated_Source\PSoC5/CapSense_1_CSHL.c **** * Function Name: CapSense_1_DisableWidget
 776:Generated_Source\PSoC5/CapSense_1_CSHL.c **** ********************************************************************************
 777:Generated_Source\PSoC5/CapSense_1_CSHL.c **** *
 778:Generated_Source\PSoC5/CapSense_1_CSHL.c **** * Summary:
 779:Generated_Source\PSoC5/CapSense_1_CSHL.c **** *  Disable all widget elements (sensors) from scanning process.
 780:Generated_Source\PSoC5/CapSense_1_CSHL.c **** *
 781:Generated_Source\PSoC5/CapSense_1_CSHL.c **** * Parameters:
 782:Generated_Source\PSoC5/CapSense_1_CSHL.c **** *  widget:  widget number.
 783:Generated_Source\PSoC5/CapSense_1_CSHL.c **** *
 784:Generated_Source\PSoC5/CapSense_1_CSHL.c **** * Return:
 785:Generated_Source\PSoC5/CapSense_1_CSHL.c **** *  None
 786:Generated_Source\PSoC5/CapSense_1_CSHL.c **** *
 787:Generated_Source\PSoC5/CapSense_1_CSHL.c **** * Global Variables:
 788:Generated_Source\PSoC5/CapSense_1_CSHL.c **** *  CapSense_1_sensorEnableMask[] - used to store the sensor scanning 
 789:Generated_Source\PSoC5/CapSense_1_CSHL.c **** *  state.
 790:Generated_Source\PSoC5/CapSense_1_CSHL.c **** *  CapSense_1_sensorEnableMask[0] contains the masked bits for sensors 
 791:Generated_Source\PSoC5/CapSense_1_CSHL.c **** *  0 through 7 (sensor 0 is bit 0, sensor 1 is bit 1).
 792:Generated_Source\PSoC5/CapSense_1_CSHL.c **** *  CapSense_1_sensorEnableMask[1] contains the masked bits for 
 793:Generated_Source\PSoC5/CapSense_1_CSHL.c **** *  sensors 8 through 15 (if needed), and so on.
 794:Generated_Source\PSoC5/CapSense_1_CSHL.c **** *  0 - sensor doesn't scan by CapSense_1_ScanEnabledWidgets().
 795:Generated_Source\PSoC5/CapSense_1_CSHL.c **** *  1 - sensor scans by CapSense_1_ScanEnabledWidgets().
 796:Generated_Source\PSoC5/CapSense_1_CSHL.c **** *
 797:Generated_Source\PSoC5/CapSense_1_CSHL.c **** * Reentrant:
 798:Generated_Source\PSoC5/CapSense_1_CSHL.c **** *  No
 799:Generated_Source\PSoC5/CapSense_1_CSHL.c **** *
 800:Generated_Source\PSoC5/CapSense_1_CSHL.c **** *******************************************************************************/
 801:Generated_Source\PSoC5/CapSense_1_CSHL.c **** void CapSense_1_DisableWidget(uint8 widget)
 802:Generated_Source\PSoC5/CapSense_1_CSHL.c ****                                     
 803:Generated_Source\PSoC5/CapSense_1_CSHL.c **** {
 658              		.loc 1 803 0
 659              		.cfi_startproc
 660              		@ args = 0, pretend = 0, frame = 0
 661              		@ frame_needed = 0, uses_anonymous_args = 0
 662              		@ link register save eliminated.
 663              	.LVL75:
 664 0000 10B4     		push	{r4}
 665              		.cfi_def_cfa_offset 4
 666              		.cfi_offset 4, -4
 667              	.LVL76:
 804:Generated_Source\PSoC5/CapSense_1_CSHL.c ****     uint8 pos;
 805:Generated_Source\PSoC5/CapSense_1_CSHL.c ****     uint8 enMask;
 806:Generated_Source\PSoC5/CapSense_1_CSHL.c ****     uint8 rawIndex = CapSense_1_rawDataIndex[widget];
ARM GAS  C:\Users\holge\AppData\Local\Temp\ccXKJRa1.s 			page 27


 668              		.loc 1 806 0
 669 0002 0023     		movs	r3, #0
 670              	.LVL77:
 671              	.L63:
 807:Generated_Source\PSoC5/CapSense_1_CSHL.c ****     uint8 numberOfSensors = CapSense_1_numberOfSensors[widget] + rawIndex;
 808:Generated_Source\PSoC5/CapSense_1_CSHL.c ****    
 809:Generated_Source\PSoC5/CapSense_1_CSHL.c ****     /* Disable all sensors of the widget */
 810:Generated_Source\PSoC5/CapSense_1_CSHL.c ****     do
 811:Generated_Source\PSoC5/CapSense_1_CSHL.c ****     {
 812:Generated_Source\PSoC5/CapSense_1_CSHL.c ****         pos = (rawIndex >> 3u);
 672              		.loc 1 812 0 discriminator 1
 673 0004 D808     		lsrs	r0, r3, #3
 674              	.LVL78:
 813:Generated_Source\PSoC5/CapSense_1_CSHL.c ****         enMask = 0x01u << (rawIndex & 0x07u);
 675              		.loc 1 813 0 discriminator 1
 676 0006 03F00701 		and	r1, r3, #7
 677 000a 0122     		movs	r2, #1
 678 000c 8A40     		lsls	r2, r2, r1
 679 000e D2B2     		uxtb	r2, r2
 680              	.LVL79:
 814:Generated_Source\PSoC5/CapSense_1_CSHL.c ****         
 815:Generated_Source\PSoC5/CapSense_1_CSHL.c ****         CapSense_1_sensorEnableMask[pos] &= (uint8)~enMask;
 681              		.loc 1 815 0 discriminator 1
 682 0010 054C     		ldr	r4, .L65
 683 0012 215C     		ldrb	r1, [r4, r0]	@ zero_extendqisi2
 684 0014 21EA0202 		bic	r2, r1, r2
 685              	.LVL80:
 686 0018 2254     		strb	r2, [r4, r0]
 816:Generated_Source\PSoC5/CapSense_1_CSHL.c ****         rawIndex++;
 687              		.loc 1 816 0 discriminator 1
 688 001a 0133     		adds	r3, r3, #1
 689              	.LVL81:
 690 001c DBB2     		uxtb	r3, r3
 691              	.LVL82:
 817:Generated_Source\PSoC5/CapSense_1_CSHL.c ****     }
 818:Generated_Source\PSoC5/CapSense_1_CSHL.c ****     while(rawIndex < numberOfSensors);
 692              		.loc 1 818 0 discriminator 1
 693 001e 042B     		cmp	r3, #4
 694 0020 F0D9     		bls	.L63
 819:Generated_Source\PSoC5/CapSense_1_CSHL.c ****     
 820:Generated_Source\PSoC5/CapSense_1_CSHL.c **** 
 821:Generated_Source\PSoC5/CapSense_1_CSHL.c **** }
 695              		.loc 1 821 0
 696 0022 10BC     		pop	{r4}
 697              		.cfi_restore 4
 698              		.cfi_def_cfa_offset 0
 699 0024 7047     		bx	lr
 700              	.L66:
 701 0026 00BF     		.align	2
 702              	.L65:
 703 0028 00000000 		.word	CapSense_1_sensorEnableMask
 704              		.cfi_endproc
 705              	.LFE10:
 706              		.size	CapSense_1_DisableWidget, .-CapSense_1_DisableWidget
 707              		.section	.text.CapSense_1_FindMaximum,"ax",%progbits
 708              		.align	2
 709              		.global	CapSense_1_FindMaximum
ARM GAS  C:\Users\holge\AppData\Local\Temp\ccXKJRa1.s 			page 28


 710              		.thumb
 711              		.thumb_func
 712              		.type	CapSense_1_FindMaximum, %function
 713              	CapSense_1_FindMaximum:
 714              	.LFB11:
 822:Generated_Source\PSoC5/CapSense_1_CSHL.c **** #if(CapSense_1_TOTAL_CENTROIDS_COUNT)
 823:Generated_Source\PSoC5/CapSense_1_CSHL.c ****     /*******************************************************************************
 824:Generated_Source\PSoC5/CapSense_1_CSHL.c ****     * Function Name: CapSense_1_FindMaximum
 825:Generated_Source\PSoC5/CapSense_1_CSHL.c ****     ********************************************************************************
 826:Generated_Source\PSoC5/CapSense_1_CSHL.c ****     *
 827:Generated_Source\PSoC5/CapSense_1_CSHL.c ****     * Summary:
 828:Generated_Source\PSoC5/CapSense_1_CSHL.c ****     *  Finds index of maximum element within defined centroid. Checks 
 829:Generated_Source\PSoC5/CapSense_1_CSHL.c ****     *  CapSense_1_SensorSignal[] within defined cenrtoid and 
 830:Generated_Source\PSoC5/CapSense_1_CSHL.c ****     *  returns index of maximum element. The values below finger threshold are 
 831:Generated_Source\PSoC5/CapSense_1_CSHL.c ****     *  ignored.
 832:Generated_Source\PSoC5/CapSense_1_CSHL.c ****     *  The centrod defines by offset of first element and number of elements - count.
 833:Generated_Source\PSoC5/CapSense_1_CSHL.c ****     *  The diplexed centroid requires at least consecutive two elements above
 834:Generated_Source\PSoC5/CapSense_1_CSHL.c ****     *  FingerThreshold to find index of maximum element.
 835:Generated_Source\PSoC5/CapSense_1_CSHL.c ****     * 
 836:Generated_Source\PSoC5/CapSense_1_CSHL.c ****     * Parameters:
 837:Generated_Source\PSoC5/CapSense_1_CSHL.c ****     *  offset:  Start index of cetroid in CapSense_1_sensorSignal[] array.
 838:Generated_Source\PSoC5/CapSense_1_CSHL.c ****     *  count:   number of elements within centroid.
 839:Generated_Source\PSoC5/CapSense_1_CSHL.c ****     *  fingerThreshold:  Finger threshould.
 840:Generated_Source\PSoC5/CapSense_1_CSHL.c ****     *  diplex:   pointer to diplex table.
 841:Generated_Source\PSoC5/CapSense_1_CSHL.c ****     * 
 842:Generated_Source\PSoC5/CapSense_1_CSHL.c ****     * Return:
 843:Generated_Source\PSoC5/CapSense_1_CSHL.c ****     *  Returns index of maximum element within defined centroid.
 844:Generated_Source\PSoC5/CapSense_1_CSHL.c ****     *  If index of maximum element doesn't find the 0xFF returns.
 845:Generated_Source\PSoC5/CapSense_1_CSHL.c ****     * 
 846:Generated_Source\PSoC5/CapSense_1_CSHL.c ****     *******************************************************************************/
 847:Generated_Source\PSoC5/CapSense_1_CSHL.c ****     #if (CapSense_1_IS_DIPLEX_SLIDER)
 848:Generated_Source\PSoC5/CapSense_1_CSHL.c ****         uint8 CapSense_1_FindMaximum(uint8 offset, uint8 count, uint8 fingerThreshold, const uint8 
 849:Generated_Source\PSoC5/CapSense_1_CSHL.c **** 	                                       
 850:Generated_Source\PSoC5/CapSense_1_CSHL.c ****     #else 
 851:Generated_Source\PSoC5/CapSense_1_CSHL.c ****         uint8 CapSense_1_FindMaximum(uint8 offset, uint8 count, uint8 fingerThreshold)
 852:Generated_Source\PSoC5/CapSense_1_CSHL.c **** 	                                       
 853:Generated_Source\PSoC5/CapSense_1_CSHL.c ****     #endif /* (CapSense_1_IS_DIPLEX_SLIDER) */
 854:Generated_Source\PSoC5/CapSense_1_CSHL.c ****     {
 715              		.loc 1 854 0
 716              		.cfi_startproc
 717              		@ args = 0, pretend = 0, frame = 0
 718              		@ frame_needed = 0, uses_anonymous_args = 0
 719              		@ link register save eliminated.
 720              	.LVL83:
 721 0000 70B4     		push	{r4, r5, r6}
 722              		.cfi_def_cfa_offset 12
 723              		.cfi_offset 4, -12
 724              		.cfi_offset 5, -8
 725              		.cfi_offset 6, -4
 726              	.LVL84:
 855:Generated_Source\PSoC5/CapSense_1_CSHL.c ****         uint8 i;
 856:Generated_Source\PSoC5/CapSense_1_CSHL.c ****         #if (CapSense_1_IS_DIPLEX_SLIDER)        
 857:Generated_Source\PSoC5/CapSense_1_CSHL.c ****             uint8 curPos = 0u;
 858:Generated_Source\PSoC5/CapSense_1_CSHL.c ****             /* No centroid at the Start */
 859:Generated_Source\PSoC5/CapSense_1_CSHL.c ****             uint8 curCntrdSize = 0u;
 860:Generated_Source\PSoC5/CapSense_1_CSHL.c ****             uint8 curCtrdStartPos = 0xFFu;
 861:Generated_Source\PSoC5/CapSense_1_CSHL.c ****             /* The biggset centroid is zero */
ARM GAS  C:\Users\holge\AppData\Local\Temp\ccXKJRa1.s 			page 29


 862:Generated_Source\PSoC5/CapSense_1_CSHL.c ****             uint8 biggestCtrdSize = 0u;
 863:Generated_Source\PSoC5/CapSense_1_CSHL.c ****             uint8 biggestCtrdStartPos = 0u;
 864:Generated_Source\PSoC5/CapSense_1_CSHL.c ****         #endif /* (CapSense_1_IS_DIPLEX_SLIDER) */
 865:Generated_Source\PSoC5/CapSense_1_CSHL.c ****         uint8 maximum = 0xFFu;
 866:Generated_Source\PSoC5/CapSense_1_CSHL.c ****         uint8 temp = 0u;
 867:Generated_Source\PSoC5/CapSense_1_CSHL.c ****         uint8 *startOfSlider = &CapSense_1_sensorSignal[offset]; 
 727              		.loc 1 867 0
 728 0002 094D     		ldr	r5, .L73
 729 0004 0544     		add	r5, r5, r0
 730              	.LVL85:
 866:Generated_Source\PSoC5/CapSense_1_CSHL.c ****         uint8 *startOfSlider = &CapSense_1_sensorSignal[offset]; 
 731              		.loc 1 866 0
 732 0006 0026     		movs	r6, #0
 865:Generated_Source\PSoC5/CapSense_1_CSHL.c ****         uint8 temp = 0u;
 733              		.loc 1 865 0
 734 0008 FF20     		movs	r0, #255
 735              	.LVL86:
 868:Generated_Source\PSoC5/CapSense_1_CSHL.c **** 
 869:Generated_Source\PSoC5/CapSense_1_CSHL.c ****         #if (CapSense_1_IS_DIPLEX_SLIDER)        
 870:Generated_Source\PSoC5/CapSense_1_CSHL.c ****             if(diplex != 0u)
 871:Generated_Source\PSoC5/CapSense_1_CSHL.c ****             {
 872:Generated_Source\PSoC5/CapSense_1_CSHL.c ****                 /* Initialize */
 873:Generated_Source\PSoC5/CapSense_1_CSHL.c ****                 i = 0u;
 874:Generated_Source\PSoC5/CapSense_1_CSHL.c ****                 
 875:Generated_Source\PSoC5/CapSense_1_CSHL.c ****                 /* Make slider x2 as Diplexed */
 876:Generated_Source\PSoC5/CapSense_1_CSHL.c ****                 count <<= 1u;
 877:Generated_Source\PSoC5/CapSense_1_CSHL.c ****                 while(1u)
 878:Generated_Source\PSoC5/CapSense_1_CSHL.c ****                 { 
 879:Generated_Source\PSoC5/CapSense_1_CSHL.c ****                     if (startOfSlider[curPos] > 0u)    /* Looking for centroids */
 880:Generated_Source\PSoC5/CapSense_1_CSHL.c ****                     {
 881:Generated_Source\PSoC5/CapSense_1_CSHL.c ****                         if (curCtrdStartPos == 0xFFu)
 882:Generated_Source\PSoC5/CapSense_1_CSHL.c ****                         {
 883:Generated_Source\PSoC5/CapSense_1_CSHL.c ****                             /* Start of centroid */
 884:Generated_Source\PSoC5/CapSense_1_CSHL.c ****                             curCtrdStartPos = i;
 885:Generated_Source\PSoC5/CapSense_1_CSHL.c ****                             curCntrdSize++;
 886:Generated_Source\PSoC5/CapSense_1_CSHL.c ****                         }
 887:Generated_Source\PSoC5/CapSense_1_CSHL.c ****                         else
 888:Generated_Source\PSoC5/CapSense_1_CSHL.c ****                         {
 889:Generated_Source\PSoC5/CapSense_1_CSHL.c ****                             curCntrdSize++;
 890:Generated_Source\PSoC5/CapSense_1_CSHL.c ****                         }
 891:Generated_Source\PSoC5/CapSense_1_CSHL.c ****                     }
 892:Generated_Source\PSoC5/CapSense_1_CSHL.c ****                     else   /* Select the bigest and indicate zero start */
 893:Generated_Source\PSoC5/CapSense_1_CSHL.c ****                     {          
 894:Generated_Source\PSoC5/CapSense_1_CSHL.c ****                         if(curCntrdSize > 0u)
 895:Generated_Source\PSoC5/CapSense_1_CSHL.c ****                         {
 896:Generated_Source\PSoC5/CapSense_1_CSHL.c ****                             /* We are in the end of current */
 897:Generated_Source\PSoC5/CapSense_1_CSHL.c ****                             if(curCntrdSize > biggestCtrdSize)
 898:Generated_Source\PSoC5/CapSense_1_CSHL.c ****                             {
 899:Generated_Source\PSoC5/CapSense_1_CSHL.c ****                                 biggestCtrdSize = curCntrdSize;
 900:Generated_Source\PSoC5/CapSense_1_CSHL.c ****                                 biggestCtrdStartPos = curCtrdStartPos;
 901:Generated_Source\PSoC5/CapSense_1_CSHL.c ****                             }
 902:Generated_Source\PSoC5/CapSense_1_CSHL.c ****                             
 903:Generated_Source\PSoC5/CapSense_1_CSHL.c ****                             curCntrdSize = 0u;
 904:Generated_Source\PSoC5/CapSense_1_CSHL.c ****                             curCtrdStartPos = 0xFFu;
 905:Generated_Source\PSoC5/CapSense_1_CSHL.c ****                         }
 906:Generated_Source\PSoC5/CapSense_1_CSHL.c ****                     }
 907:Generated_Source\PSoC5/CapSense_1_CSHL.c ****                     
ARM GAS  C:\Users\holge\AppData\Local\Temp\ccXKJRa1.s 			page 30


 908:Generated_Source\PSoC5/CapSense_1_CSHL.c ****                     i++; 
 909:Generated_Source\PSoC5/CapSense_1_CSHL.c ****                     curPos = diplex[i];
 910:Generated_Source\PSoC5/CapSense_1_CSHL.c ****                     if(i == count)
 911:Generated_Source\PSoC5/CapSense_1_CSHL.c ****                     {
 912:Generated_Source\PSoC5/CapSense_1_CSHL.c ****                         break;
 913:Generated_Source\PSoC5/CapSense_1_CSHL.c ****                     }            
 914:Generated_Source\PSoC5/CapSense_1_CSHL.c ****                 }
 915:Generated_Source\PSoC5/CapSense_1_CSHL.c ****                     
 916:Generated_Source\PSoC5/CapSense_1_CSHL.c ****                     /* Find the biggest centroid if two are the same size, last one wins
 917:Generated_Source\PSoC5/CapSense_1_CSHL.c ****                        We are in the end of current */
 918:Generated_Source\PSoC5/CapSense_1_CSHL.c ****                 if (curCntrdSize >= biggestCtrdSize) 
 919:Generated_Source\PSoC5/CapSense_1_CSHL.c ****                 {
 920:Generated_Source\PSoC5/CapSense_1_CSHL.c ****                     biggestCtrdSize = curCntrdSize;
 921:Generated_Source\PSoC5/CapSense_1_CSHL.c ****                     biggestCtrdStartPos = curCtrdStartPos;
 922:Generated_Source\PSoC5/CapSense_1_CSHL.c ****                 }
 923:Generated_Source\PSoC5/CapSense_1_CSHL.c ****             }
 924:Generated_Source\PSoC5/CapSense_1_CSHL.c ****             else
 925:Generated_Source\PSoC5/CapSense_1_CSHL.c ****             {
 926:Generated_Source\PSoC5/CapSense_1_CSHL.c ****                 /* Without diplexing */ 
 927:Generated_Source\PSoC5/CapSense_1_CSHL.c ****                 biggestCtrdSize = count;
 928:Generated_Source\PSoC5/CapSense_1_CSHL.c ****             }
 929:Generated_Source\PSoC5/CapSense_1_CSHL.c ****                         
 930:Generated_Source\PSoC5/CapSense_1_CSHL.c **** 
 931:Generated_Source\PSoC5/CapSense_1_CSHL.c ****             /* Check centroid size */
 932:Generated_Source\PSoC5/CapSense_1_CSHL.c ****             #if (CapSense_1_IS_NON_DIPLEX_SLIDER)
 933:Generated_Source\PSoC5/CapSense_1_CSHL.c ****                 if((biggestCtrdSize >= 2u) || ((biggestCtrdSize == 1u) && (diplex == 0u)))
 934:Generated_Source\PSoC5/CapSense_1_CSHL.c ****             #else                    
 935:Generated_Source\PSoC5/CapSense_1_CSHL.c ****                 if(biggestCtrdSize >= 2u)
 936:Generated_Source\PSoC5/CapSense_1_CSHL.c ****             #endif /* (CapSense_1_IS_NON_DIPLEX_SLIDER) */
 937:Generated_Source\PSoC5/CapSense_1_CSHL.c ****                 {
 938:Generated_Source\PSoC5/CapSense_1_CSHL.c ****                     for (i = biggestCtrdStartPos; i < (biggestCtrdStartPos + biggestCtrdSize); i++)
 939:Generated_Source\PSoC5/CapSense_1_CSHL.c ****                     {
 940:Generated_Source\PSoC5/CapSense_1_CSHL.c ****                         #if (CapSense_1_IS_DIPLEX_SLIDER && CapSense_1_IS_NON_DIPLEX_SLIDER)
 941:Generated_Source\PSoC5/CapSense_1_CSHL.c ****                             if (diplex == 0u)
 942:Generated_Source\PSoC5/CapSense_1_CSHL.c ****                             {
 943:Generated_Source\PSoC5/CapSense_1_CSHL.c ****                                 curPos = i;
 944:Generated_Source\PSoC5/CapSense_1_CSHL.c ****                             }
 945:Generated_Source\PSoC5/CapSense_1_CSHL.c ****                             else
 946:Generated_Source\PSoC5/CapSense_1_CSHL.c ****                             {
 947:Generated_Source\PSoC5/CapSense_1_CSHL.c ****                                 curPos = diplex[i];
 948:Generated_Source\PSoC5/CapSense_1_CSHL.c ****                             }                    
 949:Generated_Source\PSoC5/CapSense_1_CSHL.c ****                         #elif (CapSense_1_IS_DIPLEX_SLIDER)                    
 950:Generated_Source\PSoC5/CapSense_1_CSHL.c ****                             curPos = diplex[i];                    
 951:Generated_Source\PSoC5/CapSense_1_CSHL.c ****                         #endif /* (CapSense_1_IS_DIPLEX_SLIDER && CapSense_1_IS_NON_DIPLEX_SLIDER) 
 952:Generated_Source\PSoC5/CapSense_1_CSHL.c ****                         /* Looking for the grater element within centroid */
 953:Generated_Source\PSoC5/CapSense_1_CSHL.c ****                         if(startOfSlider[curPos] > fingerThreshold)
 954:Generated_Source\PSoC5/CapSense_1_CSHL.c ****                         {
 955:Generated_Source\PSoC5/CapSense_1_CSHL.c ****                             if(startOfSlider[curPos] > temp)
 956:Generated_Source\PSoC5/CapSense_1_CSHL.c ****                             {
 957:Generated_Source\PSoC5/CapSense_1_CSHL.c ****                                 maximum = i;
 958:Generated_Source\PSoC5/CapSense_1_CSHL.c ****                                 temp = startOfSlider[curPos];
 959:Generated_Source\PSoC5/CapSense_1_CSHL.c ****                             }
 960:Generated_Source\PSoC5/CapSense_1_CSHL.c ****                         }
 961:Generated_Source\PSoC5/CapSense_1_CSHL.c ****                     }
 962:Generated_Source\PSoC5/CapSense_1_CSHL.c ****                 } 
 963:Generated_Source\PSoC5/CapSense_1_CSHL.c ****         #else
 964:Generated_Source\PSoC5/CapSense_1_CSHL.c ****             for (i = 0u; i < count; i++)
ARM GAS  C:\Users\holge\AppData\Local\Temp\ccXKJRa1.s 			page 31


 736              		.loc 1 964 0
 737 000a 3346     		mov	r3, r6
 738 000c 08E0     		b	.L68
 739              	.LVL87:
 740              	.L70:
 965:Generated_Source\PSoC5/CapSense_1_CSHL.c ****             {                      
 966:Generated_Source\PSoC5/CapSense_1_CSHL.c ****                 /* Looking for the grater element within centroid */
 967:Generated_Source\PSoC5/CapSense_1_CSHL.c ****                 if(startOfSlider[i] > fingerThreshold)
 741              		.loc 1 967 0
 742 000e EC5C     		ldrb	r4, [r5, r3]	@ zero_extendqisi2
 743 0010 9442     		cmp	r4, r2
 744 0012 03D9     		bls	.L69
 968:Generated_Source\PSoC5/CapSense_1_CSHL.c ****                 {
 969:Generated_Source\PSoC5/CapSense_1_CSHL.c ****                     if(startOfSlider[i] > temp)
 745              		.loc 1 969 0
 746 0014 A642     		cmp	r6, r4
 747 0016 01D2     		bcs	.L69
 970:Generated_Source\PSoC5/CapSense_1_CSHL.c ****                     {
 971:Generated_Source\PSoC5/CapSense_1_CSHL.c ****                         maximum = i;
 972:Generated_Source\PSoC5/CapSense_1_CSHL.c ****                         temp = startOfSlider[i];
 748              		.loc 1 972 0
 749 0018 2646     		mov	r6, r4
 750              	.LVL88:
 971:Generated_Source\PSoC5/CapSense_1_CSHL.c ****                         temp = startOfSlider[i];
 751              		.loc 1 971 0
 752 001a 1846     		mov	r0, r3
 753              	.LVL89:
 754              	.L69:
 964:Generated_Source\PSoC5/CapSense_1_CSHL.c ****             {                      
 755              		.loc 1 964 0 discriminator 2
 756 001c 0133     		adds	r3, r3, #1
 757              	.LVL90:
 758 001e DBB2     		uxtb	r3, r3
 759              	.LVL91:
 760              	.L68:
 964:Generated_Source\PSoC5/CapSense_1_CSHL.c ****             {                      
 761              		.loc 1 964 0 is_stmt 0 discriminator 1
 762 0020 8B42     		cmp	r3, r1
 763 0022 F4D3     		bcc	.L70
 973:Generated_Source\PSoC5/CapSense_1_CSHL.c ****                     }
 974:Generated_Source\PSoC5/CapSense_1_CSHL.c ****                 }
 975:Generated_Source\PSoC5/CapSense_1_CSHL.c ****             }    
 976:Generated_Source\PSoC5/CapSense_1_CSHL.c ****         #endif /* (CapSense_1_IS_DIPLEX_SLIDER) */
 977:Generated_Source\PSoC5/CapSense_1_CSHL.c ****         return (maximum);
 978:Generated_Source\PSoC5/CapSense_1_CSHL.c ****     }
 764              		.loc 1 978 0 is_stmt 1
 765 0024 70BC     		pop	{r4, r5, r6}
 766              		.cfi_restore 6
 767              		.cfi_restore 5
 768              		.cfi_restore 4
 769              		.cfi_def_cfa_offset 0
 770              	.LVL92:
 771 0026 7047     		bx	lr
 772              	.L74:
 773              		.align	2
 774              	.L73:
 775 0028 00000000 		.word	CapSense_1_sensorSignal
ARM GAS  C:\Users\holge\AppData\Local\Temp\ccXKJRa1.s 			page 32


 776              		.cfi_endproc
 777              	.LFE11:
 778              		.size	CapSense_1_FindMaximum, .-CapSense_1_FindMaximum
 779              		.section	.text.CapSense_1_CalcCentroid,"ax",%progbits
 780              		.align	2
 781              		.global	CapSense_1_CalcCentroid
 782              		.thumb
 783              		.thumb_func
 784              		.type	CapSense_1_CalcCentroid, %function
 785              	CapSense_1_CalcCentroid:
 786              	.LFB12:
 979:Generated_Source\PSoC5/CapSense_1_CSHL.c ****     
 980:Generated_Source\PSoC5/CapSense_1_CSHL.c ****     
 981:Generated_Source\PSoC5/CapSense_1_CSHL.c ****     /*******************************************************************************
 982:Generated_Source\PSoC5/CapSense_1_CSHL.c ****     * Function Name: CapSense_1_CalcCentroid
 983:Generated_Source\PSoC5/CapSense_1_CSHL.c ****     ********************************************************************************
 984:Generated_Source\PSoC5/CapSense_1_CSHL.c ****     *
 985:Generated_Source\PSoC5/CapSense_1_CSHL.c ****     * Summary:
 986:Generated_Source\PSoC5/CapSense_1_CSHL.c ****     *  Returns position value calculated accoring index of maximum element and API
 987:Generated_Source\PSoC5/CapSense_1_CSHL.c ****     *  resolution.
 988:Generated_Source\PSoC5/CapSense_1_CSHL.c ****     *
 989:Generated_Source\PSoC5/CapSense_1_CSHL.c ****     * Parameters:
 990:Generated_Source\PSoC5/CapSense_1_CSHL.c ****     *  type:  widget type.
 991:Generated_Source\PSoC5/CapSense_1_CSHL.c ****     *  diplex:  pointer to diplex table.
 992:Generated_Source\PSoC5/CapSense_1_CSHL.c ****     *  maximum:  Index of maximum element within centroid.
 993:Generated_Source\PSoC5/CapSense_1_CSHL.c ****     *  offset:   Start index of cetroid in CapSense_1_SensorSignal[] array.
 994:Generated_Source\PSoC5/CapSense_1_CSHL.c ****     *  count:    Number of elements within centroid.
 995:Generated_Source\PSoC5/CapSense_1_CSHL.c ****     *  resolution:  multiplicator calculated according to centroid type and
 996:Generated_Source\PSoC5/CapSense_1_CSHL.c ****     *  API resolution.
 997:Generated_Source\PSoC5/CapSense_1_CSHL.c ****     *  noiseThreshold:  Noise threshould.
 998:Generated_Source\PSoC5/CapSense_1_CSHL.c ****     * 
 999:Generated_Source\PSoC5/CapSense_1_CSHL.c ****     * Return:
1000:Generated_Source\PSoC5/CapSense_1_CSHL.c ****     *  Returns position value of the slider.
1001:Generated_Source\PSoC5/CapSense_1_CSHL.c ****     * 
1002:Generated_Source\PSoC5/CapSense_1_CSHL.c ****     *
1003:Generated_Source\PSoC5/CapSense_1_CSHL.c ****     * Reentrant:
1004:Generated_Source\PSoC5/CapSense_1_CSHL.c ****     *  No.
1005:Generated_Source\PSoC5/CapSense_1_CSHL.c ****     *
1006:Generated_Source\PSoC5/CapSense_1_CSHL.c ****     *******************************************************************************/
1007:Generated_Source\PSoC5/CapSense_1_CSHL.c ****     uint8 CapSense_1_CalcCentroid(uint8 maximum, uint8 offset, 
1008:Generated_Source\PSoC5/CapSense_1_CSHL.c ****                                         uint8 count, uint16 resolution, uint8 noiseThreshold)
1009:Generated_Source\PSoC5/CapSense_1_CSHL.c **** 	                                    
1010:Generated_Source\PSoC5/CapSense_1_CSHL.c ****     {
 787              		.loc 1 1010 0
 788              		.cfi_startproc
 789              		@ args = 4, pretend = 0, frame = 0
 790              		@ frame_needed = 0, uses_anonymous_args = 0
 791              	.LVL93:
 792 0000 F0B5     		push	{r4, r5, r6, r7, lr}
 793              		.cfi_def_cfa_offset 20
 794              		.cfi_offset 4, -20
 795              		.cfi_offset 5, -16
 796              		.cfi_offset 6, -12
 797              		.cfi_offset 7, -8
 798              		.cfi_offset 14, -4
 799 0002 9DF81450 		ldrb	r5, [sp, #20]	@ zero_extendqisi2
 800              	.LVL94:
ARM GAS  C:\Users\holge\AppData\Local\Temp\ccXKJRa1.s 			page 33


1011:Generated_Source\PSoC5/CapSense_1_CSHL.c ****         #if ((CapSense_1_TOTAL_LINEAR_SLIDERS_COUNT > 0u) || (CapSense_1_TOTAL_TOUCH_PADS_COUNT > 0
1012:Generated_Source\PSoC5/CapSense_1_CSHL.c ****             uint8 posPrev = 0u;
1013:Generated_Source\PSoC5/CapSense_1_CSHL.c ****             uint8 posNext = 0u;
1014:Generated_Source\PSoC5/CapSense_1_CSHL.c ****         #endif /* ((CapSense_1_TOTAL_LINEAR_SLIDERS_COUNT>0u) || (CapSense_1_TOTAL_TOUCH_PADS_COUNT
1015:Generated_Source\PSoC5/CapSense_1_CSHL.c ****                
1016:Generated_Source\PSoC5/CapSense_1_CSHL.c ****         #if (CapSense_1_IS_DIPLEX_SLIDER)                
1017:Generated_Source\PSoC5/CapSense_1_CSHL.c ****             uint8 pos;
1018:Generated_Source\PSoC5/CapSense_1_CSHL.c ****         #endif /* (CapSense_1_IS_DIPLEX_SLIDER) */
1019:Generated_Source\PSoC5/CapSense_1_CSHL.c ****         
1020:Generated_Source\PSoC5/CapSense_1_CSHL.c ****         /* Helps while centroid calulation */
1021:Generated_Source\PSoC5/CapSense_1_CSHL.c ****         static uint8 CapSense_1_centroid[3u];
1022:Generated_Source\PSoC5/CapSense_1_CSHL.c **** 
1023:Generated_Source\PSoC5/CapSense_1_CSHL.c ****         uint8 position;
1024:Generated_Source\PSoC5/CapSense_1_CSHL.c ****         uint32 numerator;
1025:Generated_Source\PSoC5/CapSense_1_CSHL.c ****         int32 denominator;
1026:Generated_Source\PSoC5/CapSense_1_CSHL.c ****         uint8 *startOfSlider = &CapSense_1_sensorSignal[offset];
 801              		.loc 1 1026 0
 802 0006 284C     		ldr	r4, .L86
 803 0008 2144     		add	r1, r1, r4
 804              	.LVL95:
1027:Generated_Source\PSoC5/CapSense_1_CSHL.c ****                     
1028:Generated_Source\PSoC5/CapSense_1_CSHL.c ****         #if (CapSense_1_ADD_SLIDER_TYPE)
1029:Generated_Source\PSoC5/CapSense_1_CSHL.c ****             if(type == CapSense_1_TYPE_RADIAL_SLIDER)
1030:Generated_Source\PSoC5/CapSense_1_CSHL.c ****             {
1031:Generated_Source\PSoC5/CapSense_1_CSHL.c ****         #endif /* (CapSense_1_ADD_SLIDER_TYPE) */
1032:Generated_Source\PSoC5/CapSense_1_CSHL.c **** 
1033:Generated_Source\PSoC5/CapSense_1_CSHL.c ****             #if (CapSense_1_TOTAL_RADIAL_SLIDERS_COUNT > 0u)                
1034:Generated_Source\PSoC5/CapSense_1_CSHL.c ****                 /* Copy Signal for found centriod */
1035:Generated_Source\PSoC5/CapSense_1_CSHL.c ****                 CapSense_1_centroid[CapSense_1_POS] = startOfSlider[maximum];
1036:Generated_Source\PSoC5/CapSense_1_CSHL.c ****                  
1037:Generated_Source\PSoC5/CapSense_1_CSHL.c ****                 /* Check borders for ROTARY Slider */
1038:Generated_Source\PSoC5/CapSense_1_CSHL.c ****                 if (maximum == 0u)                   /* Start of centroid */
1039:Generated_Source\PSoC5/CapSense_1_CSHL.c ****                 { 
1040:Generated_Source\PSoC5/CapSense_1_CSHL.c ****                     CapSense_1_centroid[CapSense_1_POS_PREV] = startOfSlider[count - 1u];
1041:Generated_Source\PSoC5/CapSense_1_CSHL.c ****                     CapSense_1_centroid[CapSense_1_POS_NEXT] = startOfSlider[1u];
1042:Generated_Source\PSoC5/CapSense_1_CSHL.c ****                 }
1043:Generated_Source\PSoC5/CapSense_1_CSHL.c ****                 else if (maximum == (count - 1u))    /* End of centroid */
1044:Generated_Source\PSoC5/CapSense_1_CSHL.c ****                 {
1045:Generated_Source\PSoC5/CapSense_1_CSHL.c ****                     CapSense_1_centroid[CapSense_1_POS_PREV] = startOfSlider[maximum - 1u];
1046:Generated_Source\PSoC5/CapSense_1_CSHL.c ****                     CapSense_1_centroid[CapSense_1_POS_NEXT] = startOfSlider[0u];
1047:Generated_Source\PSoC5/CapSense_1_CSHL.c ****                 }
1048:Generated_Source\PSoC5/CapSense_1_CSHL.c ****                 else                                /* Not first Not last */
1049:Generated_Source\PSoC5/CapSense_1_CSHL.c ****                 {
1050:Generated_Source\PSoC5/CapSense_1_CSHL.c ****                     CapSense_1_centroid[CapSense_1_POS_PREV] = startOfSlider[maximum - 1u];
1051:Generated_Source\PSoC5/CapSense_1_CSHL.c ****                     CapSense_1_centroid[CapSense_1_POS_NEXT] = startOfSlider[maximum + 1u];
1052:Generated_Source\PSoC5/CapSense_1_CSHL.c ****                 }
1053:Generated_Source\PSoC5/CapSense_1_CSHL.c ****             #endif /* (CapSense_1_TOTAL_RADIAL_SLIDERS_COUNT > 0u) */
1054:Generated_Source\PSoC5/CapSense_1_CSHL.c **** 
1055:Generated_Source\PSoC5/CapSense_1_CSHL.c ****         #if (CapSense_1_ADD_SLIDER_TYPE)
1056:Generated_Source\PSoC5/CapSense_1_CSHL.c ****             }
1057:Generated_Source\PSoC5/CapSense_1_CSHL.c ****             else
1058:Generated_Source\PSoC5/CapSense_1_CSHL.c ****             {
1059:Generated_Source\PSoC5/CapSense_1_CSHL.c ****         #endif /* (CapSense_1_ADD_SLIDER_TYPE) */
1060:Generated_Source\PSoC5/CapSense_1_CSHL.c **** 
1061:Generated_Source\PSoC5/CapSense_1_CSHL.c ****             #if ((CapSense_1_TOTAL_LINEAR_SLIDERS_COUNT > 0u) || (CapSense_1_TOTAL_TOUCH_PADS_COUNT
1062:Generated_Source\PSoC5/CapSense_1_CSHL.c ****                 #if (CapSense_1_IS_DIPLEX_SLIDER && CapSense_1_IS_NON_DIPLEX_SLIDER)               
1063:Generated_Source\PSoC5/CapSense_1_CSHL.c ****                     /* Calculate next and previous near to maximum */
ARM GAS  C:\Users\holge\AppData\Local\Temp\ccXKJRa1.s 			page 34


1064:Generated_Source\PSoC5/CapSense_1_CSHL.c ****                     if(diplex == 0u)
1065:Generated_Source\PSoC5/CapSense_1_CSHL.c ****                     {
1066:Generated_Source\PSoC5/CapSense_1_CSHL.c ****                         pos     = maximum;
1067:Generated_Source\PSoC5/CapSense_1_CSHL.c ****                         posPrev = maximum - 1u;
1068:Generated_Source\PSoC5/CapSense_1_CSHL.c ****                         posNext = maximum + 1u; 
1069:Generated_Source\PSoC5/CapSense_1_CSHL.c ****                     }
1070:Generated_Source\PSoC5/CapSense_1_CSHL.c ****                     else
1071:Generated_Source\PSoC5/CapSense_1_CSHL.c ****                     {
1072:Generated_Source\PSoC5/CapSense_1_CSHL.c ****                         pos     = diplex[maximum];
1073:Generated_Source\PSoC5/CapSense_1_CSHL.c ****                         posPrev = diplex[maximum - 1u];
1074:Generated_Source\PSoC5/CapSense_1_CSHL.c ****                         posNext = diplex[maximum + 1u];
1075:Generated_Source\PSoC5/CapSense_1_CSHL.c ****                         count <<= 1u;
1076:Generated_Source\PSoC5/CapSense_1_CSHL.c ****                     }                    
1077:Generated_Source\PSoC5/CapSense_1_CSHL.c ****                 #elif (CapSense_1_IS_DIPLEX_SLIDER)
1078:Generated_Source\PSoC5/CapSense_1_CSHL.c ****                     /* Calculate next and previous near to maximum */
1079:Generated_Source\PSoC5/CapSense_1_CSHL.c ****                     pos     = diplex[maximum];
1080:Generated_Source\PSoC5/CapSense_1_CSHL.c ****                     posPrev = diplex[maximum - 1u];
1081:Generated_Source\PSoC5/CapSense_1_CSHL.c ****                     posNext = diplex[maximum + 1u];
1082:Generated_Source\PSoC5/CapSense_1_CSHL.c ****                     count <<= 1u;                    
1083:Generated_Source\PSoC5/CapSense_1_CSHL.c ****                 #else                    
1084:Generated_Source\PSoC5/CapSense_1_CSHL.c ****                     /* Calculate next and previous near to maximum */
1085:Generated_Source\PSoC5/CapSense_1_CSHL.c ****                     if (maximum >= 1u)
 805              		.loc 1 1085 0
 806 000a 0446     		mov	r4, r0
 807 000c 10B1     		cbz	r0, .L84
1086:Generated_Source\PSoC5/CapSense_1_CSHL.c ****                     {
1087:Generated_Source\PSoC5/CapSense_1_CSHL.c ****                         posPrev = maximum - 1u;
 808              		.loc 1 1087 0
 809 000e 461E     		subs	r6, r0, #1
 810 0010 F6B2     		uxtb	r6, r6
 811              	.LVL96:
 812 0012 00E0     		b	.L76
 813              	.LVL97:
 814              	.L84:
1012:Generated_Source\PSoC5/CapSense_1_CSHL.c ****             uint8 posNext = 0u;
 815              		.loc 1 1012 0
 816 0014 0026     		movs	r6, #0
 817              	.LVL98:
 818              	.L76:
1088:Generated_Source\PSoC5/CapSense_1_CSHL.c ****                     }
1089:Generated_Source\PSoC5/CapSense_1_CSHL.c ****                     posNext = maximum + 1u; 
 819              		.loc 1 1089 0
 820 0016 601C     		adds	r0, r4, #1
 821              	.LVL99:
 822 0018 C0B2     		uxtb	r0, r0
 823              	.LVL100:
1090:Generated_Source\PSoC5/CapSense_1_CSHL.c ****                 #endif /* (CapSense_1_IS_DIPLEX_SLIDER && CapSense_1_IS_NON_DIPLEX_SLIDER) */
1091:Generated_Source\PSoC5/CapSense_1_CSHL.c ****                         
1092:Generated_Source\PSoC5/CapSense_1_CSHL.c ****                 /* Copy Signal for found centriod */
1093:Generated_Source\PSoC5/CapSense_1_CSHL.c ****                 #if (CapSense_1_IS_DIPLEX_SLIDER)
1094:Generated_Source\PSoC5/CapSense_1_CSHL.c ****                     CapSense_1_centroid[CapSense_1_POS] = startOfSlider[pos];
1095:Generated_Source\PSoC5/CapSense_1_CSHL.c ****                 #else
1096:Generated_Source\PSoC5/CapSense_1_CSHL.c ****                     CapSense_1_centroid[CapSense_1_POS] = startOfSlider[maximum];
 824              		.loc 1 1096 0
 825 001a 11F804E0 		ldrb	lr, [r1, r4]	@ zero_extendqisi2
 826 001e 234F     		ldr	r7, .L86+4
 827 0020 87F805E0 		strb	lr, [r7, #5]
ARM GAS  C:\Users\holge\AppData\Local\Temp\ccXKJRa1.s 			page 35


1097:Generated_Source\PSoC5/CapSense_1_CSHL.c ****                 #endif /* (CapSense_1_IS_DIPLEX_SLIDER) */
1098:Generated_Source\PSoC5/CapSense_1_CSHL.c ****                     
1099:Generated_Source\PSoC5/CapSense_1_CSHL.c ****                 /* Check borders for LINEAR Slider */
1100:Generated_Source\PSoC5/CapSense_1_CSHL.c ****                 if (maximum == 0u)                   /* Start of centroid */
 828              		.loc 1 1100 0
 829 0024 24B9     		cbnz	r4, .L77
1101:Generated_Source\PSoC5/CapSense_1_CSHL.c ****                 { 
1102:Generated_Source\PSoC5/CapSense_1_CSHL.c ****                     CapSense_1_centroid[CapSense_1_POS_PREV] = 0u;
 830              		.loc 1 1102 0
 831 0026 0026     		movs	r6, #0
 832              	.LVL101:
 833 0028 3E71     		strb	r6, [r7, #4]
1103:Generated_Source\PSoC5/CapSense_1_CSHL.c ****                     CapSense_1_centroid[CapSense_1_POS_NEXT] = startOfSlider[posNext];
 834              		.loc 1 1103 0
 835 002a 095C     		ldrb	r1, [r1, r0]	@ zero_extendqisi2
 836              	.LVL102:
 837 002c B971     		strb	r1, [r7, #6]
 838 002e 0DE0     		b	.L78
 839              	.LVL103:
 840              	.L77:
1104:Generated_Source\PSoC5/CapSense_1_CSHL.c ****                 }
1105:Generated_Source\PSoC5/CapSense_1_CSHL.c ****                 else if (maximum == ((count) - 1u)) /* End of centroid */
 841              		.loc 1 1105 0
 842 0030 013A     		subs	r2, r2, #1
 843              	.LVL104:
 844 0032 9442     		cmp	r4, r2
 845 0034 05D1     		bne	.L79
1106:Generated_Source\PSoC5/CapSense_1_CSHL.c ****                 {
1107:Generated_Source\PSoC5/CapSense_1_CSHL.c ****                     CapSense_1_centroid[CapSense_1_POS_PREV] = startOfSlider[posPrev];
 846              		.loc 1 1107 0
 847 0036 895D     		ldrb	r1, [r1, r6]	@ zero_extendqisi2
 848              	.LVL105:
 849 0038 1C4A     		ldr	r2, .L86+4
 850 003a 1171     		strb	r1, [r2, #4]
1108:Generated_Source\PSoC5/CapSense_1_CSHL.c ****                     CapSense_1_centroid[CapSense_1_POS_NEXT] = 0u;
 851              		.loc 1 1108 0
 852 003c 0021     		movs	r1, #0
 853 003e 9171     		strb	r1, [r2, #6]
 854 0040 04E0     		b	.L78
 855              	.LVL106:
 856              	.L79:
1109:Generated_Source\PSoC5/CapSense_1_CSHL.c ****                 }
1110:Generated_Source\PSoC5/CapSense_1_CSHL.c ****                 else                                /* Not first Not last */
1111:Generated_Source\PSoC5/CapSense_1_CSHL.c ****                 {
1112:Generated_Source\PSoC5/CapSense_1_CSHL.c ****                     CapSense_1_centroid[CapSense_1_POS_PREV] = startOfSlider[posPrev];
 857              		.loc 1 1112 0
 858 0042 8E5D     		ldrb	r6, [r1, r6]	@ zero_extendqisi2
 859              	.LVL107:
 860 0044 194A     		ldr	r2, .L86+4
 861 0046 1671     		strb	r6, [r2, #4]
1113:Generated_Source\PSoC5/CapSense_1_CSHL.c ****                     CapSense_1_centroid[CapSense_1_POS_NEXT] = startOfSlider[posNext];
 862              		.loc 1 1113 0
 863 0048 095C     		ldrb	r1, [r1, r0]	@ zero_extendqisi2
 864              	.LVL108:
 865 004a 9171     		strb	r1, [r2, #6]
 866              	.L78:
1114:Generated_Source\PSoC5/CapSense_1_CSHL.c ****                 }
ARM GAS  C:\Users\holge\AppData\Local\Temp\ccXKJRa1.s 			page 36


1115:Generated_Source\PSoC5/CapSense_1_CSHL.c ****             #endif /* ((CapSense_1_TOTAL_LINEAR_SLIDERS_COUNT>0u)||(CapSense_1_TOTAL_TOUCH_PADS_COU
1116:Generated_Source\PSoC5/CapSense_1_CSHL.c **** 
1117:Generated_Source\PSoC5/CapSense_1_CSHL.c ****         #if (CapSense_1_ADD_SLIDER_TYPE)
1118:Generated_Source\PSoC5/CapSense_1_CSHL.c ****             }
1119:Generated_Source\PSoC5/CapSense_1_CSHL.c ****         #endif /* (CapSense_1_ADD_SLIDER_TYPE) */
1120:Generated_Source\PSoC5/CapSense_1_CSHL.c ****     
1121:Generated_Source\PSoC5/CapSense_1_CSHL.c ****         /* Subtract noiseThreshold */
1122:Generated_Source\PSoC5/CapSense_1_CSHL.c ****         if(CapSense_1_centroid[CapSense_1_POS_PREV] > noiseThreshold)
 867              		.loc 1 1122 0
 868 004c 174A     		ldr	r2, .L86+4
 869 004e 1279     		ldrb	r2, [r2, #4]	@ zero_extendqisi2
 870 0050 AA42     		cmp	r2, r5
 871 0052 03D9     		bls	.L80
1123:Generated_Source\PSoC5/CapSense_1_CSHL.c ****         {
1124:Generated_Source\PSoC5/CapSense_1_CSHL.c ****             CapSense_1_centroid[CapSense_1_POS_PREV] -= noiseThreshold;
 872              		.loc 1 1124 0
 873 0054 521B     		subs	r2, r2, r5
 874 0056 1549     		ldr	r1, .L86+4
 875 0058 0A71     		strb	r2, [r1, #4]
 876 005a 02E0     		b	.L81
 877              	.L80:
1125:Generated_Source\PSoC5/CapSense_1_CSHL.c ****         }
1126:Generated_Source\PSoC5/CapSense_1_CSHL.c ****         else
1127:Generated_Source\PSoC5/CapSense_1_CSHL.c ****         {
1128:Generated_Source\PSoC5/CapSense_1_CSHL.c ****             CapSense_1_centroid[CapSense_1_POS_PREV] = 0u;
 878              		.loc 1 1128 0
 879 005c 0021     		movs	r1, #0
 880 005e 134A     		ldr	r2, .L86+4
 881 0060 1171     		strb	r1, [r2, #4]
 882              	.L81:
1129:Generated_Source\PSoC5/CapSense_1_CSHL.c ****         }
1130:Generated_Source\PSoC5/CapSense_1_CSHL.c ****         
1131:Generated_Source\PSoC5/CapSense_1_CSHL.c ****         /* Maximum always grater than fingerThreshold, so grate than noiseThreshold */
1132:Generated_Source\PSoC5/CapSense_1_CSHL.c ****         CapSense_1_centroid[CapSense_1_POS] -= noiseThreshold;
 883              		.loc 1 1132 0
 884 0062 124A     		ldr	r2, .L86+4
 885 0064 5179     		ldrb	r1, [r2, #5]	@ zero_extendqisi2
 886 0066 491B     		subs	r1, r1, r5
 887 0068 C9B2     		uxtb	r1, r1
 888 006a 5171     		strb	r1, [r2, #5]
1133:Generated_Source\PSoC5/CapSense_1_CSHL.c ****         
1134:Generated_Source\PSoC5/CapSense_1_CSHL.c ****         /* Subtract noiseThreshold */
1135:Generated_Source\PSoC5/CapSense_1_CSHL.c ****         if(CapSense_1_centroid[CapSense_1_POS_NEXT] > noiseThreshold)
 889              		.loc 1 1135 0
 890 006c 9279     		ldrb	r2, [r2, #6]	@ zero_extendqisi2
 891 006e 9542     		cmp	r5, r2
 892 0070 03D2     		bcs	.L82
1136:Generated_Source\PSoC5/CapSense_1_CSHL.c ****         {
1137:Generated_Source\PSoC5/CapSense_1_CSHL.c ****             CapSense_1_centroid[CapSense_1_POS_NEXT] -= noiseThreshold;
 893              		.loc 1 1137 0
 894 0072 551B     		subs	r5, r2, r5
 895 0074 0D4A     		ldr	r2, .L86+4
 896 0076 9571     		strb	r5, [r2, #6]
 897 0078 02E0     		b	.L83
 898              	.L82:
1138:Generated_Source\PSoC5/CapSense_1_CSHL.c ****         }
1139:Generated_Source\PSoC5/CapSense_1_CSHL.c ****         else
ARM GAS  C:\Users\holge\AppData\Local\Temp\ccXKJRa1.s 			page 37


1140:Generated_Source\PSoC5/CapSense_1_CSHL.c ****         {
1141:Generated_Source\PSoC5/CapSense_1_CSHL.c ****             CapSense_1_centroid[CapSense_1_POS_NEXT] = 0u;
 899              		.loc 1 1141 0
 900 007a 0020     		movs	r0, #0
 901              	.LVL109:
 902 007c 0B4A     		ldr	r2, .L86+4
 903 007e 9071     		strb	r0, [r2, #6]
 904              	.L83:
1142:Generated_Source\PSoC5/CapSense_1_CSHL.c ****         }
1143:Generated_Source\PSoC5/CapSense_1_CSHL.c ****         
1144:Generated_Source\PSoC5/CapSense_1_CSHL.c ****         
1145:Generated_Source\PSoC5/CapSense_1_CSHL.c ****         /* Si+1 - Si-1 */
1146:Generated_Source\PSoC5/CapSense_1_CSHL.c ****         numerator = (uint32) CapSense_1_centroid[CapSense_1_POS_NEXT] -
 905              		.loc 1 1146 0
 906 0080 0A4A     		ldr	r2, .L86+4
 907 0082 9079     		ldrb	r0, [r2, #6]	@ zero_extendqisi2
1147:Generated_Source\PSoC5/CapSense_1_CSHL.c ****                     (uint32) CapSense_1_centroid[CapSense_1_POS_PREV];
 908              		.loc 1 1147 0
 909 0084 1579     		ldrb	r5, [r2, #4]	@ zero_extendqisi2
1146:Generated_Source\PSoC5/CapSense_1_CSHL.c ****                     (uint32) CapSense_1_centroid[CapSense_1_POS_PREV];
 910              		.loc 1 1146 0
 911 0086 421B     		subs	r2, r0, r5
 912              	.LVL110:
1148:Generated_Source\PSoC5/CapSense_1_CSHL.c **** 
1149:Generated_Source\PSoC5/CapSense_1_CSHL.c ****         /* Si+1 + Si + Si-1 */
1150:Generated_Source\PSoC5/CapSense_1_CSHL.c ****         denominator = (int32) CapSense_1_centroid[CapSense_1_POS_PREV] + 
 913              		.loc 1 1150 0
 914 0088 2944     		add	r1, r1, r5
 915 008a 0844     		add	r0, r0, r1
 916              	.LVL111:
1151:Generated_Source\PSoC5/CapSense_1_CSHL.c ****                       (int32) CapSense_1_centroid[CapSense_1_POS] + 
1152:Generated_Source\PSoC5/CapSense_1_CSHL.c ****                       (int32) CapSense_1_centroid[CapSense_1_POS_NEXT];
1153:Generated_Source\PSoC5/CapSense_1_CSHL.c ****         
1154:Generated_Source\PSoC5/CapSense_1_CSHL.c ****         /* (numerator/denominator) + maximum */
1155:Generated_Source\PSoC5/CapSense_1_CSHL.c ****         denominator = (((int32)(uint32)((uint32)numerator << 8u)/denominator) + (int32)(uint32)((ui
 917              		.loc 1 1155 0
 918 008c 1202     		lsls	r2, r2, #8
 919              	.LVL112:
 920 008e 92FBF0F0 		sdiv	r0, r2, r0
 921              	.LVL113:
 922 0092 00EB0420 		add	r0, r0, r4, lsl #8
 923              	.LVL114:
1156:Generated_Source\PSoC5/CapSense_1_CSHL.c **** 
1157:Generated_Source\PSoC5/CapSense_1_CSHL.c ****         #if(CapSense_1_TOTAL_RADIAL_SLIDERS_COUNT > 0u)
1158:Generated_Source\PSoC5/CapSense_1_CSHL.c ****             /* Only required for RADIAL Slider */
1159:Generated_Source\PSoC5/CapSense_1_CSHL.c ****             if(denominator < 0)
1160:Generated_Source\PSoC5/CapSense_1_CSHL.c ****             {
1161:Generated_Source\PSoC5/CapSense_1_CSHL.c ****                 denominator += (int32)((uint16)((uint16) count << 8u));
1162:Generated_Source\PSoC5/CapSense_1_CSHL.c ****             }
1163:Generated_Source\PSoC5/CapSense_1_CSHL.c ****         #endif /* (CapSense_1_TOTAL_RADIAL_SLIDERS_COUNT > 0u) */
1164:Generated_Source\PSoC5/CapSense_1_CSHL.c **** 
1165:Generated_Source\PSoC5/CapSense_1_CSHL.c ****         denominator *= (int16)resolution;
 924              		.loc 1 1165 0
 925 0096 1BB2     		sxth	r3, r3
 926 0098 00FB03F0 		mul	r0, r0, r3
 927              	.LVL115:
1166:Generated_Source\PSoC5/CapSense_1_CSHL.c **** 
ARM GAS  C:\Users\holge\AppData\Local\Temp\ccXKJRa1.s 			page 38


1167:Generated_Source\PSoC5/CapSense_1_CSHL.c ****         /* Round the relust and put it to uint8 */
1168:Generated_Source\PSoC5/CapSense_1_CSHL.c ****         position = ((uint8) HI16((uint32)denominator + CapSense_1_CENTROID_ROUND_VALUE));
 928              		.loc 1 1168 0
 929 009c 00F5FE40 		add	r0, r0, #32512
 930              	.LVL116:
1169:Generated_Source\PSoC5/CapSense_1_CSHL.c **** 
1170:Generated_Source\PSoC5/CapSense_1_CSHL.c ****         return (position);
1171:Generated_Source\PSoC5/CapSense_1_CSHL.c ****     }    
 931              		.loc 1 1171 0
 932 00a0 C0F30740 		ubfx	r0, r0, #16, #8
 933              	.LVL117:
 934 00a4 F0BD     		pop	{r4, r5, r6, r7, pc}
 935              	.LVL118:
 936              	.L87:
 937 00a6 00BF     		.align	2
 938              	.L86:
 939 00a8 00000000 		.word	CapSense_1_sensorSignal
 940 00ac 00000000 		.word	.LANCHOR0
 941              		.cfi_endproc
 942              	.LFE12:
 943              		.size	CapSense_1_CalcCentroid, .-CapSense_1_CalcCentroid
 944              		.section	.text.CapSense_1_IIR4Filter,"ax",%progbits
 945              		.align	2
 946              		.global	CapSense_1_IIR4Filter
 947              		.thumb
 948              		.thumb_func
 949              		.type	CapSense_1_IIR4Filter, %function
 950              	CapSense_1_IIR4Filter:
 951              	.LFB14:
1172:Generated_Source\PSoC5/CapSense_1_CSHL.c **** #endif /* (CapSense_1_TOTAL_CENTROIDS_COUNT) */
1173:Generated_Source\PSoC5/CapSense_1_CSHL.c **** 
1174:Generated_Source\PSoC5/CapSense_1_CSHL.c **** 
1175:Generated_Source\PSoC5/CapSense_1_CSHL.c **** #if(CapSense_1_TOTAL_LINEAR_SLIDERS_COUNT > 0u)
1176:Generated_Source\PSoC5/CapSense_1_CSHL.c ****     /*******************************************************************************
1177:Generated_Source\PSoC5/CapSense_1_CSHL.c ****     * Function Name: CapSense_1_GetCentroidPos
1178:Generated_Source\PSoC5/CapSense_1_CSHL.c ****     ********************************************************************************
1179:Generated_Source\PSoC5/CapSense_1_CSHL.c ****     *
1180:Generated_Source\PSoC5/CapSense_1_CSHL.c ****     * Summary:
1181:Generated_Source\PSoC5/CapSense_1_CSHL.c ****     *  Checks the CapSense_1_Signal[ ] array for a centroid within
1182:Generated_Source\PSoC5/CapSense_1_CSHL.c ****     *  slider specified range. The centroid position is calculated to the resolution
1183:Generated_Source\PSoC5/CapSense_1_CSHL.c ****     *  specified in the CapSense customizer. The position filters are applied to the
1184:Generated_Source\PSoC5/CapSense_1_CSHL.c ****     *  result if enabled.
1185:Generated_Source\PSoC5/CapSense_1_CSHL.c ****     *
1186:Generated_Source\PSoC5/CapSense_1_CSHL.c ****     * Parameters:
1187:Generated_Source\PSoC5/CapSense_1_CSHL.c ****     *  widget:  Widget number.
1188:Generated_Source\PSoC5/CapSense_1_CSHL.c ****     *  For every linear slider widget there are defines in this format:
1189:Generated_Source\PSoC5/CapSense_1_CSHL.c ****     *  #define CapSense_1_LS__"widget_name"            5
1190:Generated_Source\PSoC5/CapSense_1_CSHL.c ****     * 
1191:Generated_Source\PSoC5/CapSense_1_CSHL.c ****     * Return:
1192:Generated_Source\PSoC5/CapSense_1_CSHL.c ****     *  Returns position value of the linear slider.
1193:Generated_Source\PSoC5/CapSense_1_CSHL.c ****     *
1194:Generated_Source\PSoC5/CapSense_1_CSHL.c ****     * Side Effects:
1195:Generated_Source\PSoC5/CapSense_1_CSHL.c ****     *  If any sensor within the slider widget is active, the function returns values
1196:Generated_Source\PSoC5/CapSense_1_CSHL.c ****     *  from zero to the API resolution value set in the CapSense customizer. If no
1197:Generated_Source\PSoC5/CapSense_1_CSHL.c ****     *  sensors are active, the function returns 0xFFFF. If an error occurs during
1198:Generated_Source\PSoC5/CapSense_1_CSHL.c ****     *  execution of the centroid/diplexing algorithm, the function returns 0xFFFF.
1199:Generated_Source\PSoC5/CapSense_1_CSHL.c ****     *  There are no checks of widget type argument provided to this function.
ARM GAS  C:\Users\holge\AppData\Local\Temp\ccXKJRa1.s 			page 39


1200:Generated_Source\PSoC5/CapSense_1_CSHL.c ****     *  The unproper widget type provided will cause unexpected position calculations.
1201:Generated_Source\PSoC5/CapSense_1_CSHL.c ****     *
1202:Generated_Source\PSoC5/CapSense_1_CSHL.c ****     * Note:
1203:Generated_Source\PSoC5/CapSense_1_CSHL.c ****     *  If noise counts on the slider segments are greater than the noise
1204:Generated_Source\PSoC5/CapSense_1_CSHL.c ****     *  threshold, this subroutine may generate a false centroid result. The noise
1205:Generated_Source\PSoC5/CapSense_1_CSHL.c ****     *  threshold should be set carefully (high enough above the noise level) so
1206:Generated_Source\PSoC5/CapSense_1_CSHL.c ****     *  that noise will not generate a false centroid.
1207:Generated_Source\PSoC5/CapSense_1_CSHL.c ****     *
1208:Generated_Source\PSoC5/CapSense_1_CSHL.c ****     * Reentrant:
1209:Generated_Source\PSoC5/CapSense_1_CSHL.c ****     *  No.
1210:Generated_Source\PSoC5/CapSense_1_CSHL.c ****     *
1211:Generated_Source\PSoC5/CapSense_1_CSHL.c ****     *******************************************************************************/
1212:Generated_Source\PSoC5/CapSense_1_CSHL.c ****     uint16 CapSense_1_GetCentroidPos(uint8 widget) 
1213:Generated_Source\PSoC5/CapSense_1_CSHL.c ****     {
1214:Generated_Source\PSoC5/CapSense_1_CSHL.c ****         #if (CapSense_1_IS_DIPLEX_SLIDER)
1215:Generated_Source\PSoC5/CapSense_1_CSHL.c ****             const uint8 CYCODE *diplex;
1216:Generated_Source\PSoC5/CapSense_1_CSHL.c ****         #endif /* (CapSense_1_IS_DIPLEX_SLIDER) */
1217:Generated_Source\PSoC5/CapSense_1_CSHL.c ****                 
1218:Generated_Source\PSoC5/CapSense_1_CSHL.c ****         #if (0u != CapSense_1_LINEAR_SLIDERS_POS_FILTERS_MASK)
1219:Generated_Source\PSoC5/CapSense_1_CSHL.c ****             uint8 posIndex;
1220:Generated_Source\PSoC5/CapSense_1_CSHL.c ****             uint8 firstTimeIndex = CapSense_1_posFiltersData[widget];
1221:Generated_Source\PSoC5/CapSense_1_CSHL.c ****             uint8 posFiltersMask = CapSense_1_posFiltersMask[widget];  
1222:Generated_Source\PSoC5/CapSense_1_CSHL.c ****         #endif /* (0u != CapSense_1_LINEAR_SLIDERS_POS_FILTERS_MASK) */
1223:Generated_Source\PSoC5/CapSense_1_CSHL.c **** 
1224:Generated_Source\PSoC5/CapSense_1_CSHL.c ****         #if ((0u != (CapSense_1_MEDIAN_FILTER & CapSense_1_LINEAR_SLIDERS_POS_FILTERS_MASK)) || \
1225:Generated_Source\PSoC5/CapSense_1_CSHL.c ****              (0u != (CapSense_1_AVERAGING_FILTER & CapSense_1_LINEAR_SLIDERS_POS_FILTERS_MASK)))
1226:Generated_Source\PSoC5/CapSense_1_CSHL.c ****             uint8 tempPos;
1227:Generated_Source\PSoC5/CapSense_1_CSHL.c ****         #endif /* ((0u != (CapSense_1_MEDIAN_FILTER & CapSense_1_LINEAR_SLIDERS_POS_FILTERS_MASK)) 
1228:Generated_Source\PSoC5/CapSense_1_CSHL.c ****                *   (0u != (CapSense_1_AVERAGING_FILTER & CapSense_1_LINEAR_SLIDERS_POS_FILTERS_MASK
1229:Generated_Source\PSoC5/CapSense_1_CSHL.c ****                */
1230:Generated_Source\PSoC5/CapSense_1_CSHL.c **** 
1231:Generated_Source\PSoC5/CapSense_1_CSHL.c ****         uint8 maximum;
1232:Generated_Source\PSoC5/CapSense_1_CSHL.c ****         uint16 position;
1233:Generated_Source\PSoC5/CapSense_1_CSHL.c ****         uint8 offset = CapSense_1_rawDataIndex[widget];
1234:Generated_Source\PSoC5/CapSense_1_CSHL.c ****         uint8 count = CapSense_1_numberOfSensors[widget];
1235:Generated_Source\PSoC5/CapSense_1_CSHL.c ****                         
1236:Generated_Source\PSoC5/CapSense_1_CSHL.c ****         #if (CapSense_1_IS_DIPLEX_SLIDER)
1237:Generated_Source\PSoC5/CapSense_1_CSHL.c ****             if(widget < CapSense_1_TOTAL_DIPLEXED_SLIDERS_COUNT)
1238:Generated_Source\PSoC5/CapSense_1_CSHL.c ****             {
1239:Generated_Source\PSoC5/CapSense_1_CSHL.c ****                 maximum = CapSense_1_diplexTable[widget];
1240:Generated_Source\PSoC5/CapSense_1_CSHL.c ****                 diplex = &CapSense_1_diplexTable[maximum];
1241:Generated_Source\PSoC5/CapSense_1_CSHL.c ****             }
1242:Generated_Source\PSoC5/CapSense_1_CSHL.c ****             else
1243:Generated_Source\PSoC5/CapSense_1_CSHL.c ****             {
1244:Generated_Source\PSoC5/CapSense_1_CSHL.c ****                 diplex = 0u;
1245:Generated_Source\PSoC5/CapSense_1_CSHL.c ****             }
1246:Generated_Source\PSoC5/CapSense_1_CSHL.c ****         #endif /* (CapSense_1_IS_DIPLEX_SLIDER) */
1247:Generated_Source\PSoC5/CapSense_1_CSHL.c **** 
1248:Generated_Source\PSoC5/CapSense_1_CSHL.c ****         /* Find Maximum within centroid */      
1249:Generated_Source\PSoC5/CapSense_1_CSHL.c ****         #if (CapSense_1_IS_DIPLEX_SLIDER)        
1250:Generated_Source\PSoC5/CapSense_1_CSHL.c ****             maximum = CapSense_1_FindMaximum(offset, count, CapSense_1_fingerThreshold[widget], dip
1251:Generated_Source\PSoC5/CapSense_1_CSHL.c ****         #else
1252:Generated_Source\PSoC5/CapSense_1_CSHL.c ****             maximum = CapSense_1_FindMaximum(offset, count, CapSense_1_fingerThreshold[widget]);
1253:Generated_Source\PSoC5/CapSense_1_CSHL.c ****         #endif /* (CapSense_1_IS_DIPLEX_SLIDER) */
1254:Generated_Source\PSoC5/CapSense_1_CSHL.c **** 
1255:Generated_Source\PSoC5/CapSense_1_CSHL.c ****         if (maximum != 0xFFu)
1256:Generated_Source\PSoC5/CapSense_1_CSHL.c ****         {
ARM GAS  C:\Users\holge\AppData\Local\Temp\ccXKJRa1.s 			page 40


1257:Generated_Source\PSoC5/CapSense_1_CSHL.c ****             /* Calculate centroid */
1258:Generated_Source\PSoC5/CapSense_1_CSHL.c ****             position = (uint16) CapSense_1_CalcCentroid(maximum, 
1259:Generated_Source\PSoC5/CapSense_1_CSHL.c ****                          offset, count, CapSense_1_centroidMult[widget], CapSense_1_noiseThreshold[
1260:Generated_Source\PSoC5/CapSense_1_CSHL.c **** 
1261:Generated_Source\PSoC5/CapSense_1_CSHL.c ****             #if (0u != CapSense_1_LINEAR_SLIDERS_POS_FILTERS_MASK)
1262:Generated_Source\PSoC5/CapSense_1_CSHL.c ****                 /* Check if this linear slider has enabled filters */
1263:Generated_Source\PSoC5/CapSense_1_CSHL.c ****                 if (0u != (posFiltersMask & CapSense_1_ANY_POS_FILTER))
1264:Generated_Source\PSoC5/CapSense_1_CSHL.c ****                 {
1265:Generated_Source\PSoC5/CapSense_1_CSHL.c ****                     /* Caluclate position to store filters data */
1266:Generated_Source\PSoC5/CapSense_1_CSHL.c ****                     posIndex  = firstTimeIndex + 1u;
1267:Generated_Source\PSoC5/CapSense_1_CSHL.c ****                     
1268:Generated_Source\PSoC5/CapSense_1_CSHL.c ****                     if (0u == CapSense_1_posFiltersData[firstTimeIndex])
1269:Generated_Source\PSoC5/CapSense_1_CSHL.c ****                     {
1270:Generated_Source\PSoC5/CapSense_1_CSHL.c ****                         /* Init filters */
1271:Generated_Source\PSoC5/CapSense_1_CSHL.c ****                         CapSense_1_posFiltersData[posIndex] = (uint8) position;
1272:Generated_Source\PSoC5/CapSense_1_CSHL.c ****                         #if ((0u != (CapSense_1_MEDIAN_FILTER & \
1273:Generated_Source\PSoC5/CapSense_1_CSHL.c ****                                      CapSense_1_LINEAR_SLIDERS_POS_FILTERS_MASK)) || \
1274:Generated_Source\PSoC5/CapSense_1_CSHL.c ****                              (0u != (CapSense_1_AVERAGING_FILTER & \
1275:Generated_Source\PSoC5/CapSense_1_CSHL.c ****                                      CapSense_1_LINEAR_SLIDERS_POS_FILTERS_MASK)))
1276:Generated_Source\PSoC5/CapSense_1_CSHL.c **** 
1277:Generated_Source\PSoC5/CapSense_1_CSHL.c ****                             if ( (0u != (posFiltersMask & CapSense_1_MEDIAN_FILTER)) || 
1278:Generated_Source\PSoC5/CapSense_1_CSHL.c ****                                  (0u != (posFiltersMask & CapSense_1_AVERAGING_FILTER)) )
1279:Generated_Source\PSoC5/CapSense_1_CSHL.c ****                             {
1280:Generated_Source\PSoC5/CapSense_1_CSHL.c ****                                 CapSense_1_posFiltersData[posIndex + 1u] = (uint8) position;
1281:Generated_Source\PSoC5/CapSense_1_CSHL.c ****                             }
1282:Generated_Source\PSoC5/CapSense_1_CSHL.c ****                         #endif /* ((0u != (CapSense_1_MEDIAN_FILTER & \
1283:Generated_Source\PSoC5/CapSense_1_CSHL.c ****                                *           CapSense_1_LINEAR_SLIDERS_POS_FILTERS_MASK)) || \
1284:Generated_Source\PSoC5/CapSense_1_CSHL.c ****                                *   (0u != (CapSense_1_AVERAGING_FILTER & \
1285:Generated_Source\PSoC5/CapSense_1_CSHL.c ****                                *           CapSense_1_LINEAR_SLIDERS_POS_FILTERS_MASK)))
1286:Generated_Source\PSoC5/CapSense_1_CSHL.c ****                                */
1287:Generated_Source\PSoC5/CapSense_1_CSHL.c ****                         
1288:Generated_Source\PSoC5/CapSense_1_CSHL.c ****                         CapSense_1_posFiltersData[firstTimeIndex] = 1u;
1289:Generated_Source\PSoC5/CapSense_1_CSHL.c ****                     }
1290:Generated_Source\PSoC5/CapSense_1_CSHL.c ****                     else
1291:Generated_Source\PSoC5/CapSense_1_CSHL.c ****                     {
1292:Generated_Source\PSoC5/CapSense_1_CSHL.c ****                         /* Do filtering */
1293:Generated_Source\PSoC5/CapSense_1_CSHL.c ****                         #if (0u != (CapSense_1_MEDIAN_FILTER & CapSense_1_LINEAR_SLIDERS_POS_FILTER
1294:Generated_Source\PSoC5/CapSense_1_CSHL.c ****                             if (0u != (posFiltersMask & CapSense_1_MEDIAN_FILTER))
1295:Generated_Source\PSoC5/CapSense_1_CSHL.c ****                             {
1296:Generated_Source\PSoC5/CapSense_1_CSHL.c ****                                 tempPos = (uint8) position;
1297:Generated_Source\PSoC5/CapSense_1_CSHL.c ****                                 position = CapSense_1_MedianFilter(position,
1298:Generated_Source\PSoC5/CapSense_1_CSHL.c ****                                                                 (uint16)CapSense_1_posFiltersData[p
1299:Generated_Source\PSoC5/CapSense_1_CSHL.c ****                                                                 (uint16)CapSense_1_posFiltersData[p
1300:Generated_Source\PSoC5/CapSense_1_CSHL.c ****                                 CapSense_1_posFiltersData[posIndex + 1u] =
1301:Generated_Source\PSoC5/CapSense_1_CSHL.c ****                                                                              CapSense_1_posFiltersD
1302:Generated_Source\PSoC5/CapSense_1_CSHL.c ****                                 CapSense_1_posFiltersData[posIndex] = tempPos;
1303:Generated_Source\PSoC5/CapSense_1_CSHL.c ****                             }
1304:Generated_Source\PSoC5/CapSense_1_CSHL.c ****                         #endif /*(0u != (CapSense_1_MEDIAN_FILTER &
1305:Generated_Source\PSoC5/CapSense_1_CSHL.c ****                                *         CapSense_1_LINEAR_SLIDERS_POS_FILTERS_MASK))
1306:Generated_Source\PSoC5/CapSense_1_CSHL.c ****                                */
1307:Generated_Source\PSoC5/CapSense_1_CSHL.c **** 
1308:Generated_Source\PSoC5/CapSense_1_CSHL.c ****                         #if(0u!=(CapSense_1_AVERAGING_FILTER & CapSense_1_LINEAR_SLIDERS_POS_FILTER
1309:Generated_Source\PSoC5/CapSense_1_CSHL.c ****                             if (0u != (posFiltersMask & CapSense_1_AVERAGING_FILTER)) 
1310:Generated_Source\PSoC5/CapSense_1_CSHL.c ****                             {
1311:Generated_Source\PSoC5/CapSense_1_CSHL.c ****                                 tempPos = (uint8) position;
1312:Generated_Source\PSoC5/CapSense_1_CSHL.c ****                                 position = CapSense_1_AveragingFilter(position,
1313:Generated_Source\PSoC5/CapSense_1_CSHL.c ****                                                                 (uint16)CapSense_1_posFiltersData[p
ARM GAS  C:\Users\holge\AppData\Local\Temp\ccXKJRa1.s 			page 41


1314:Generated_Source\PSoC5/CapSense_1_CSHL.c ****                                                                 (uint16)CapSense_1_posFiltersData[p
1315:Generated_Source\PSoC5/CapSense_1_CSHL.c ****                                 CapSense_1_posFiltersData[posIndex+1u]=CapSense_1_posFiltersData[po
1316:Generated_Source\PSoC5/CapSense_1_CSHL.c ****                                 CapSense_1_posFiltersData[posIndex] = tempPos;
1317:Generated_Source\PSoC5/CapSense_1_CSHL.c ****                             }
1318:Generated_Source\PSoC5/CapSense_1_CSHL.c ****                         #endif /* (0u != (CapSense_1_AVERAGING_FILTER & \
1319:Generated_Source\PSoC5/CapSense_1_CSHL.c ****                                *           CapSense_1_LINEAR_SLIDERS_POS_FILTERS_MASK))
1320:Generated_Source\PSoC5/CapSense_1_CSHL.c ****                                */
1321:Generated_Source\PSoC5/CapSense_1_CSHL.c **** 
1322:Generated_Source\PSoC5/CapSense_1_CSHL.c ****                         #if (0u != (CapSense_1_IIR2_FILTER & CapSense_1_LINEAR_SLIDERS_POS_FILTERS_
1323:Generated_Source\PSoC5/CapSense_1_CSHL.c ****                             if (0u != (posFiltersMask & CapSense_1_IIR2_FILTER)) 
1324:Generated_Source\PSoC5/CapSense_1_CSHL.c ****                             {
1325:Generated_Source\PSoC5/CapSense_1_CSHL.c ****                                 position = CapSense_1_IIR2Filter(position,
1326:Generated_Source\PSoC5/CapSense_1_CSHL.c ****                                                                     (uint16)CapSense_1_posFiltersDa
1327:Generated_Source\PSoC5/CapSense_1_CSHL.c ****                                 CapSense_1_posFiltersData[posIndex] = (uint8) position;
1328:Generated_Source\PSoC5/CapSense_1_CSHL.c ****                             }
1329:Generated_Source\PSoC5/CapSense_1_CSHL.c ****                         #endif /* (0u != (CapSense_1_IIR2_FILTER & \
1330:Generated_Source\PSoC5/CapSense_1_CSHL.c ****                                *          CapSense_1_LINEAR_SLIDERS_POS_FILTERS_MASK))
1331:Generated_Source\PSoC5/CapSense_1_CSHL.c ****                                */
1332:Generated_Source\PSoC5/CapSense_1_CSHL.c **** 
1333:Generated_Source\PSoC5/CapSense_1_CSHL.c ****                         #if (0u != (CapSense_1_IIR4_FILTER & CapSense_1_LINEAR_SLIDERS_POS_FILTERS_
1334:Generated_Source\PSoC5/CapSense_1_CSHL.c ****                             if (0u != (posFiltersMask & CapSense_1_IIR4_FILTER))
1335:Generated_Source\PSoC5/CapSense_1_CSHL.c ****                             {
1336:Generated_Source\PSoC5/CapSense_1_CSHL.c ****                                 position = CapSense_1_IIR4Filter(position,
1337:Generated_Source\PSoC5/CapSense_1_CSHL.c ****                                                                     (uint16)CapSense_1_posFiltersDa
1338:Generated_Source\PSoC5/CapSense_1_CSHL.c ****                                 CapSense_1_posFiltersData[posIndex] = (uint8) position;
1339:Generated_Source\PSoC5/CapSense_1_CSHL.c ****                             }                                
1340:Generated_Source\PSoC5/CapSense_1_CSHL.c ****                         #endif /* (0u != (CapSense_1_IIR4_FILTER & \
1341:Generated_Source\PSoC5/CapSense_1_CSHL.c ****                                *          CapSense_1_LINEAR_SLIDERS_POS_FILTERS_MASK))
1342:Generated_Source\PSoC5/CapSense_1_CSHL.c ****                                */
1343:Generated_Source\PSoC5/CapSense_1_CSHL.c **** 
1344:Generated_Source\PSoC5/CapSense_1_CSHL.c ****                         #if (0u != (CapSense_1_JITTER_FILTER & CapSense_1_LINEAR_SLIDERS_POS_FILTER
1345:Generated_Source\PSoC5/CapSense_1_CSHL.c ****                             if (0u != (posFiltersMask & CapSense_1_JITTER_FILTER))
1346:Generated_Source\PSoC5/CapSense_1_CSHL.c ****                             {
1347:Generated_Source\PSoC5/CapSense_1_CSHL.c ****                                 position = CapSense_1_JitterFilter(position,
1348:Generated_Source\PSoC5/CapSense_1_CSHL.c ****                                                                     (uint16)CapSense_1_posFiltersDa
1349:Generated_Source\PSoC5/CapSense_1_CSHL.c ****                                 CapSense_1_posFiltersData[posIndex] = (uint8) position;
1350:Generated_Source\PSoC5/CapSense_1_CSHL.c ****                             }
1351:Generated_Source\PSoC5/CapSense_1_CSHL.c ****                         #endif /* (0u != (CapSense_1_JITTER_FILTER & \
1352:Generated_Source\PSoC5/CapSense_1_CSHL.c ****                                *           CapSense_1_LINEAR_SLIDERS_POS_FILTERS_MASK))
1353:Generated_Source\PSoC5/CapSense_1_CSHL.c ****                                */
1354:Generated_Source\PSoC5/CapSense_1_CSHL.c ****                     }
1355:Generated_Source\PSoC5/CapSense_1_CSHL.c ****                 }
1356:Generated_Source\PSoC5/CapSense_1_CSHL.c ****             #endif /* (0u != CapSense_1_LINEAR_SLIDERS_POS_FILTERS_MASK) */
1357:Generated_Source\PSoC5/CapSense_1_CSHL.c **** 
1358:Generated_Source\PSoC5/CapSense_1_CSHL.c ****         }
1359:Generated_Source\PSoC5/CapSense_1_CSHL.c ****         else
1360:Generated_Source\PSoC5/CapSense_1_CSHL.c ****         {
1361:Generated_Source\PSoC5/CapSense_1_CSHL.c ****             /* The maximum wasn't found */
1362:Generated_Source\PSoC5/CapSense_1_CSHL.c ****             position = 0xFFFFu;
1363:Generated_Source\PSoC5/CapSense_1_CSHL.c **** 
1364:Generated_Source\PSoC5/CapSense_1_CSHL.c ****             #if(0u != CapSense_1_LINEAR_SLIDERS_POS_FILTERS_MASK)
1365:Generated_Source\PSoC5/CapSense_1_CSHL.c ****                 /* Reset the filters */
1366:Generated_Source\PSoC5/CapSense_1_CSHL.c ****                 if(0u != (posFiltersMask & CapSense_1_ANY_POS_FILTER))
1367:Generated_Source\PSoC5/CapSense_1_CSHL.c ****                 {
1368:Generated_Source\PSoC5/CapSense_1_CSHL.c ****                     CapSense_1_posFiltersData[firstTimeIndex] = 0u;
1369:Generated_Source\PSoC5/CapSense_1_CSHL.c ****                 }
1370:Generated_Source\PSoC5/CapSense_1_CSHL.c ****             #endif /* (0u != CapSense_1_LINEAR_SLIDERS_POS_FILTERS_MASK) */
ARM GAS  C:\Users\holge\AppData\Local\Temp\ccXKJRa1.s 			page 42


1371:Generated_Source\PSoC5/CapSense_1_CSHL.c ****         }
1372:Generated_Source\PSoC5/CapSense_1_CSHL.c **** 
1373:Generated_Source\PSoC5/CapSense_1_CSHL.c ****         
1374:Generated_Source\PSoC5/CapSense_1_CSHL.c ****         return (position);
1375:Generated_Source\PSoC5/CapSense_1_CSHL.c ****     }
1376:Generated_Source\PSoC5/CapSense_1_CSHL.c **** #endif /* (CapSense_1_TOTAL_LINEAR_SLIDERS_COUNT > 0u) */
1377:Generated_Source\PSoC5/CapSense_1_CSHL.c **** 
1378:Generated_Source\PSoC5/CapSense_1_CSHL.c **** 
1379:Generated_Source\PSoC5/CapSense_1_CSHL.c **** #if(CapSense_1_TOTAL_RADIAL_SLIDERS_COUNT > 0u)
1380:Generated_Source\PSoC5/CapSense_1_CSHL.c ****     /*******************************************************************************
1381:Generated_Source\PSoC5/CapSense_1_CSHL.c ****     * Function Name: CapSense_1_GetRadialCentroidPos
1382:Generated_Source\PSoC5/CapSense_1_CSHL.c ****     ********************************************************************************
1383:Generated_Source\PSoC5/CapSense_1_CSHL.c ****     *
1384:Generated_Source\PSoC5/CapSense_1_CSHL.c ****     * Summary:
1385:Generated_Source\PSoC5/CapSense_1_CSHL.c ****     *  Checks the CapSense_1_Signal[ ] array for a centroid within
1386:Generated_Source\PSoC5/CapSense_1_CSHL.c ****     *  slider specified range. The centroid position is calculated to the resolution
1387:Generated_Source\PSoC5/CapSense_1_CSHL.c ****     *  specified in the CapSense customizer. The position filters are applied to the
1388:Generated_Source\PSoC5/CapSense_1_CSHL.c ****     *  result if enabled.
1389:Generated_Source\PSoC5/CapSense_1_CSHL.c ****     *
1390:Generated_Source\PSoC5/CapSense_1_CSHL.c ****     * Parameters:
1391:Generated_Source\PSoC5/CapSense_1_CSHL.c ****     *  widget:  Widget number.
1392:Generated_Source\PSoC5/CapSense_1_CSHL.c ****     *  For every radial slider widget there are defines in this format:
1393:Generated_Source\PSoC5/CapSense_1_CSHL.c ****     *  #define CapSense_1_RS_"widget_name"            5
1394:Generated_Source\PSoC5/CapSense_1_CSHL.c ****     * 
1395:Generated_Source\PSoC5/CapSense_1_CSHL.c ****     * Return:
1396:Generated_Source\PSoC5/CapSense_1_CSHL.c ****     *  Returns position value of the radial slider.
1397:Generated_Source\PSoC5/CapSense_1_CSHL.c ****     *
1398:Generated_Source\PSoC5/CapSense_1_CSHL.c ****     * Side Effects:
1399:Generated_Source\PSoC5/CapSense_1_CSHL.c ****     *  If any sensor within the slider widget is active, the function returns values
1400:Generated_Source\PSoC5/CapSense_1_CSHL.c ****     *  from zero to the API resolution value set in the CapSense customizer. If no
1401:Generated_Source\PSoC5/CapSense_1_CSHL.c ****     *  sensors are active, the function returns 0xFFFF.
1402:Generated_Source\PSoC5/CapSense_1_CSHL.c ****     *  There are no checks of widget type argument provided to this function.
1403:Generated_Source\PSoC5/CapSense_1_CSHL.c ****     *  The unproper widget type provided will cause unexpected position calculations.
1404:Generated_Source\PSoC5/CapSense_1_CSHL.c ****     *
1405:Generated_Source\PSoC5/CapSense_1_CSHL.c ****     * Note:
1406:Generated_Source\PSoC5/CapSense_1_CSHL.c ****     *  If noise counts on the slider segments are greater than the noise
1407:Generated_Source\PSoC5/CapSense_1_CSHL.c ****     *  threshold, this subroutine may generate a false centroid result. The noise
1408:Generated_Source\PSoC5/CapSense_1_CSHL.c ****     *  threshold should be set carefully (high enough above the noise level) so 
1409:Generated_Source\PSoC5/CapSense_1_CSHL.c ****     *  that noise will not generate a false centroid.
1410:Generated_Source\PSoC5/CapSense_1_CSHL.c ****     *
1411:Generated_Source\PSoC5/CapSense_1_CSHL.c ****     *
1412:Generated_Source\PSoC5/CapSense_1_CSHL.c ****     * Reentrant:
1413:Generated_Source\PSoC5/CapSense_1_CSHL.c ****     *  No.
1414:Generated_Source\PSoC5/CapSense_1_CSHL.c ****     *
1415:Generated_Source\PSoC5/CapSense_1_CSHL.c ****     *******************************************************************************/
1416:Generated_Source\PSoC5/CapSense_1_CSHL.c ****      uint16 CapSense_1_GetRadialCentroidPos(uint8 widget)
1417:Generated_Source\PSoC5/CapSense_1_CSHL.c **** 	                                       
1418:Generated_Source\PSoC5/CapSense_1_CSHL.c ****     {
1419:Generated_Source\PSoC5/CapSense_1_CSHL.c ****         #if (0u != CapSense_1_RADIAL_SLIDERS_POS_FILTERS_MASK)
1420:Generated_Source\PSoC5/CapSense_1_CSHL.c ****             uint8 posIndex;
1421:Generated_Source\PSoC5/CapSense_1_CSHL.c ****             uint8 firstTimeIndex = CapSense_1_posFiltersData[widget];
1422:Generated_Source\PSoC5/CapSense_1_CSHL.c ****             uint8 posFiltersMask = CapSense_1_posFiltersMask[widget]; 
1423:Generated_Source\PSoC5/CapSense_1_CSHL.c ****         #endif /* (0u != CapSense_1_RADIAL_SLIDERS_POS_FILTERS_MASK) */
1424:Generated_Source\PSoC5/CapSense_1_CSHL.c **** 
1425:Generated_Source\PSoC5/CapSense_1_CSHL.c ****         #if ((0u != (CapSense_1_MEDIAN_FILTER & CapSense_1_RADIAL_SLIDERS_POS_FILTERS_MASK)) || \
1426:Generated_Source\PSoC5/CapSense_1_CSHL.c ****              (0u != (CapSense_1_AVERAGING_FILTER & CapSense_1_RADIAL_SLIDERS_POS_FILTERS_MASK)))
1427:Generated_Source\PSoC5/CapSense_1_CSHL.c ****             uint8 tempPos;
ARM GAS  C:\Users\holge\AppData\Local\Temp\ccXKJRa1.s 			page 43


1428:Generated_Source\PSoC5/CapSense_1_CSHL.c ****         #endif /* ((0u != (CapSense_1_MEDIAN_FILTER & CapSense_1_RADIAL_SLIDERS_POS_FILTERS_MASK)) 
1429:Generated_Source\PSoC5/CapSense_1_CSHL.c ****                *   (0u != (CapSense_1_AVERAGING_FILTER & CapSense_1_RADIAL_SLIDERS_POS_FILTERS_MASK
1430:Generated_Source\PSoC5/CapSense_1_CSHL.c ****                */
1431:Generated_Source\PSoC5/CapSense_1_CSHL.c **** 
1432:Generated_Source\PSoC5/CapSense_1_CSHL.c ****         uint8 maximum;
1433:Generated_Source\PSoC5/CapSense_1_CSHL.c ****         uint16 position;
1434:Generated_Source\PSoC5/CapSense_1_CSHL.c ****         uint8 offset = CapSense_1_rawDataIndex[widget];
1435:Generated_Source\PSoC5/CapSense_1_CSHL.c ****         uint8 count = CapSense_1_numberOfSensors[widget];
1436:Generated_Source\PSoC5/CapSense_1_CSHL.c ****         
1437:Generated_Source\PSoC5/CapSense_1_CSHL.c ****         /* Find Maximum within centroid */        
1438:Generated_Source\PSoC5/CapSense_1_CSHL.c ****         #if (CapSense_1_IS_DIPLEX_SLIDER)
1439:Generated_Source\PSoC5/CapSense_1_CSHL.c ****             maximum = CapSense_1_FindMaximum(offset, count, CapSense_1_fingerThreshold[widget], 0u)
1440:Generated_Source\PSoC5/CapSense_1_CSHL.c ****         #else
1441:Generated_Source\PSoC5/CapSense_1_CSHL.c ****             maximum = CapSense_1_FindMaximum(offset, count, CapSense_1_fingerThreshold[widget]);
1442:Generated_Source\PSoC5/CapSense_1_CSHL.c ****         #endif /* (CapSense_1_IS_DIPLEX_SLIDER) */
1443:Generated_Source\PSoC5/CapSense_1_CSHL.c ****         
1444:Generated_Source\PSoC5/CapSense_1_CSHL.c ****         if (maximum != 0xFFu)
1445:Generated_Source\PSoC5/CapSense_1_CSHL.c ****         {
1446:Generated_Source\PSoC5/CapSense_1_CSHL.c ****             /* Calculate centroid */
1447:Generated_Source\PSoC5/CapSense_1_CSHL.c ****             position = (uint16) CapSense_1_CalcCentroid(maximum, 
1448:Generated_Source\PSoC5/CapSense_1_CSHL.c ****                          offset, count, CapSense_1_centroidMult[widget], CapSense_1_noiseThreshold[
1449:Generated_Source\PSoC5/CapSense_1_CSHL.c **** 
1450:Generated_Source\PSoC5/CapSense_1_CSHL.c ****             #if (0u != CapSense_1_RADIAL_SLIDERS_POS_FILTERS_MASK)
1451:Generated_Source\PSoC5/CapSense_1_CSHL.c ****                 /* Check if this Radial slider has enabled filters */
1452:Generated_Source\PSoC5/CapSense_1_CSHL.c ****                 if (0u != (posFiltersMask & CapSense_1_ANY_POS_FILTER))
1453:Generated_Source\PSoC5/CapSense_1_CSHL.c ****                 {
1454:Generated_Source\PSoC5/CapSense_1_CSHL.c ****                     /* Caluclate position to store filters data */
1455:Generated_Source\PSoC5/CapSense_1_CSHL.c ****                     posIndex  = firstTimeIndex + 1u;
1456:Generated_Source\PSoC5/CapSense_1_CSHL.c ****                     
1457:Generated_Source\PSoC5/CapSense_1_CSHL.c ****                     if (0u == CapSense_1_posFiltersData[firstTimeIndex])
1458:Generated_Source\PSoC5/CapSense_1_CSHL.c ****                     {
1459:Generated_Source\PSoC5/CapSense_1_CSHL.c ****                         /* Init filters */
1460:Generated_Source\PSoC5/CapSense_1_CSHL.c ****                         CapSense_1_posFiltersData[posIndex] = (uint8) position;
1461:Generated_Source\PSoC5/CapSense_1_CSHL.c ****                         #if ((0u != (CapSense_1_MEDIAN_FILTER & \
1462:Generated_Source\PSoC5/CapSense_1_CSHL.c ****                                      CapSense_1_RADIAL_SLIDERS_POS_FILTERS_MASK)) || \
1463:Generated_Source\PSoC5/CapSense_1_CSHL.c ****                              (0u != (CapSense_1_AVERAGING_FILTER & \
1464:Generated_Source\PSoC5/CapSense_1_CSHL.c ****                                      CapSense_1_RADIAL_SLIDERS_POS_FILTERS_MASK)))
1465:Generated_Source\PSoC5/CapSense_1_CSHL.c **** 
1466:Generated_Source\PSoC5/CapSense_1_CSHL.c ****                             if ( (0u != (posFiltersMask & CapSense_1_MEDIAN_FILTER))  || 
1467:Generated_Source\PSoC5/CapSense_1_CSHL.c ****                                  (0u != (posFiltersMask & CapSense_1_AVERAGING_FILTER)) )
1468:Generated_Source\PSoC5/CapSense_1_CSHL.c ****                             {
1469:Generated_Source\PSoC5/CapSense_1_CSHL.c ****                                 CapSense_1_posFiltersData[posIndex + 1u] = (uint8) position;
1470:Generated_Source\PSoC5/CapSense_1_CSHL.c ****                             }
1471:Generated_Source\PSoC5/CapSense_1_CSHL.c ****                         #endif /* ((0u != (CapSense_1_MEDIAN_FILTER & \
1472:Generated_Source\PSoC5/CapSense_1_CSHL.c ****                                *           CapSense_1_RADIAL_SLIDERS_POS_FILTERS_MASK)) || \
1473:Generated_Source\PSoC5/CapSense_1_CSHL.c ****                                *   (0u != (CapSense_1_AVERAGING_FILTER & \
1474:Generated_Source\PSoC5/CapSense_1_CSHL.c ****                                *           CapSense_1_RADIAL_SLIDERS_POS_FILTERS_MASK)))
1475:Generated_Source\PSoC5/CapSense_1_CSHL.c ****                                */
1476:Generated_Source\PSoC5/CapSense_1_CSHL.c ****                         
1477:Generated_Source\PSoC5/CapSense_1_CSHL.c ****                         CapSense_1_posFiltersData[firstTimeIndex] = 1u;
1478:Generated_Source\PSoC5/CapSense_1_CSHL.c ****                     }
1479:Generated_Source\PSoC5/CapSense_1_CSHL.c ****                     else
1480:Generated_Source\PSoC5/CapSense_1_CSHL.c ****                     {
1481:Generated_Source\PSoC5/CapSense_1_CSHL.c ****                         /* Do filtering */
1482:Generated_Source\PSoC5/CapSense_1_CSHL.c ****                         #if (0u != (CapSense_1_MEDIAN_FILTER & CapSense_1_RADIAL_SLIDERS_POS_FILTER
1483:Generated_Source\PSoC5/CapSense_1_CSHL.c ****                             if (0u != (posFiltersMask & CapSense_1_MEDIAN_FILTER))
1484:Generated_Source\PSoC5/CapSense_1_CSHL.c ****                             {
ARM GAS  C:\Users\holge\AppData\Local\Temp\ccXKJRa1.s 			page 44


1485:Generated_Source\PSoC5/CapSense_1_CSHL.c ****                                 tempPos = (uint8) position;
1486:Generated_Source\PSoC5/CapSense_1_CSHL.c ****                                 position = CapSense_1_MedianFilter(position,
1487:Generated_Source\PSoC5/CapSense_1_CSHL.c ****                                                                         CapSense_1_posFiltersData[p
1488:Generated_Source\PSoC5/CapSense_1_CSHL.c ****                                                                         CapSense_1_posFiltersData[p
1489:Generated_Source\PSoC5/CapSense_1_CSHL.c ****                                 CapSense_1_posFiltersData[posIndex + 1u] = 
1490:Generated_Source\PSoC5/CapSense_1_CSHL.c ****                                                                               CapSense_1_posFilters
1491:Generated_Source\PSoC5/CapSense_1_CSHL.c ****                                 CapSense_1_posFiltersData[posIndex] = tempPos;
1492:Generated_Source\PSoC5/CapSense_1_CSHL.c ****                             }
1493:Generated_Source\PSoC5/CapSense_1_CSHL.c ****                         #endif /* (0u != (CapSense_1_MEDIAN_FILTER & 
1494:Generated_Source\PSoC5/CapSense_1_CSHL.c ****                                *          CapSense_1_RADIAL_SLIDERS_POS_FILTERS_MASK))
1495:Generated_Source\PSoC5/CapSense_1_CSHL.c ****                                */
1496:Generated_Source\PSoC5/CapSense_1_CSHL.c **** 
1497:Generated_Source\PSoC5/CapSense_1_CSHL.c ****                         #if (0u != (CapSense_1_AVERAGING_FILTER & \
1498:Generated_Source\PSoC5/CapSense_1_CSHL.c ****                                     CapSense_1_RADIAL_SLIDERS_POS_FILTERS_MASK))
1499:Generated_Source\PSoC5/CapSense_1_CSHL.c ****                             if (0u != (posFiltersMask & CapSense_1_AVERAGING_FILTER))
1500:Generated_Source\PSoC5/CapSense_1_CSHL.c ****                             {
1501:Generated_Source\PSoC5/CapSense_1_CSHL.c ****                                 tempPos = (uint8) position;
1502:Generated_Source\PSoC5/CapSense_1_CSHL.c ****                                 position = CapSense_1_AveragingFilter(position, 
1503:Generated_Source\PSoC5/CapSense_1_CSHL.c ****                                                                        CapSense_1_posFiltersData[po
1504:Generated_Source\PSoC5/CapSense_1_CSHL.c ****                                                                        CapSense_1_posFiltersData[po
1505:Generated_Source\PSoC5/CapSense_1_CSHL.c ****                                 CapSense_1_posFiltersData[posIndex+1u]= CapSense_1_posFiltersData[p
1506:Generated_Source\PSoC5/CapSense_1_CSHL.c ****                                 CapSense_1_posFiltersData[posIndex] = tempPos;
1507:Generated_Source\PSoC5/CapSense_1_CSHL.c ****                             }
1508:Generated_Source\PSoC5/CapSense_1_CSHL.c ****                         #endif /* (0u != (CapSense_1_AVERAGING_FILTER & \
1509:Generated_Source\PSoC5/CapSense_1_CSHL.c ****                                *          CapSense_1_RADIAL_SLIDERS_POS_FILTERS_MASK))
1510:Generated_Source\PSoC5/CapSense_1_CSHL.c ****                                */
1511:Generated_Source\PSoC5/CapSense_1_CSHL.c **** 
1512:Generated_Source\PSoC5/CapSense_1_CSHL.c ****                         #if (0u != (CapSense_1_IIR2_FILTER & CapSense_1_RADIAL_SLIDERS_POS_FILTERS_
1513:Generated_Source\PSoC5/CapSense_1_CSHL.c ****                             if (0u != (posFiltersMask & CapSense_1_IIR2_FILTER))
1514:Generated_Source\PSoC5/CapSense_1_CSHL.c ****                             {
1515:Generated_Source\PSoC5/CapSense_1_CSHL.c ****                                 position = CapSense_1_IIR2Filter(position,
1516:Generated_Source\PSoC5/CapSense_1_CSHL.c ****                                                                     (uint16)CapSense_1_posFiltersDa
1517:Generated_Source\PSoC5/CapSense_1_CSHL.c ****                                 CapSense_1_posFiltersData[posIndex] = (uint8) position;
1518:Generated_Source\PSoC5/CapSense_1_CSHL.c ****                             }
1519:Generated_Source\PSoC5/CapSense_1_CSHL.c ****                         #endif /* (0u != (CapSense_1_IIR2_FILTER & 
1520:Generated_Source\PSoC5/CapSense_1_CSHL.c ****                                *          CapSense_1_RADIAL_SLIDERS_POS_FILTERS_MASK))
1521:Generated_Source\PSoC5/CapSense_1_CSHL.c ****                                */
1522:Generated_Source\PSoC5/CapSense_1_CSHL.c **** 
1523:Generated_Source\PSoC5/CapSense_1_CSHL.c ****                         #if (0u != (CapSense_1_IIR4_FILTER & CapSense_1_RADIAL_SLIDERS_POS_FILTERS_
1524:Generated_Source\PSoC5/CapSense_1_CSHL.c ****                             if (0u != (posFiltersMask & CapSense_1_IIR4_FILTER))
1525:Generated_Source\PSoC5/CapSense_1_CSHL.c ****                             {
1526:Generated_Source\PSoC5/CapSense_1_CSHL.c ****                                 position = CapSense_1_IIR4Filter(position,
1527:Generated_Source\PSoC5/CapSense_1_CSHL.c ****                                                                     (uint16)CapSense_1_posFiltersDa
1528:Generated_Source\PSoC5/CapSense_1_CSHL.c ****                                 CapSense_1_posFiltersData[posIndex] = (uint8) position;
1529:Generated_Source\PSoC5/CapSense_1_CSHL.c ****                             }
1530:Generated_Source\PSoC5/CapSense_1_CSHL.c ****                         #endif /* (0u != (CapSense_1_IIR4_FILTER & 
1531:Generated_Source\PSoC5/CapSense_1_CSHL.c ****                                *          CapSense_1_RADIAL_SLIDERS_POS_FILTERS_MASK))
1532:Generated_Source\PSoC5/CapSense_1_CSHL.c ****                                */
1533:Generated_Source\PSoC5/CapSense_1_CSHL.c **** 
1534:Generated_Source\PSoC5/CapSense_1_CSHL.c ****                         #if (0u != (CapSense_1_JITTER_FILTER & CapSense_1_RADIAL_SLIDERS_POS_FILTER
1535:Generated_Source\PSoC5/CapSense_1_CSHL.c ****                             if (0u != (posFiltersMask & CapSense_1_JITTER_FILTER))
1536:Generated_Source\PSoC5/CapSense_1_CSHL.c ****                             {
1537:Generated_Source\PSoC5/CapSense_1_CSHL.c ****                                 position = CapSense_1_JitterFilter(position, 
1538:Generated_Source\PSoC5/CapSense_1_CSHL.c ****                                                                          CapSense_1_posFiltersData[
1539:Generated_Source\PSoC5/CapSense_1_CSHL.c ****                                 CapSense_1_posFiltersData[posIndex] = (uint8) position;
1540:Generated_Source\PSoC5/CapSense_1_CSHL.c ****                             }
1541:Generated_Source\PSoC5/CapSense_1_CSHL.c ****                         #endif /* (0u != (CapSense_1_JITTER_FILTER &
ARM GAS  C:\Users\holge\AppData\Local\Temp\ccXKJRa1.s 			page 45


1542:Generated_Source\PSoC5/CapSense_1_CSHL.c ****                                *           CapSense_1_RADIAL_SLIDERS_POS_FILTERS_MASK))
1543:Generated_Source\PSoC5/CapSense_1_CSHL.c ****                                */
1544:Generated_Source\PSoC5/CapSense_1_CSHL.c ****                     }
1545:Generated_Source\PSoC5/CapSense_1_CSHL.c ****                 }
1546:Generated_Source\PSoC5/CapSense_1_CSHL.c ****             #endif /* (0u != CapSense_1_RADIAL_SLIDERS_POS_FILTERS_MASK) */
1547:Generated_Source\PSoC5/CapSense_1_CSHL.c **** 
1548:Generated_Source\PSoC5/CapSense_1_CSHL.c ****         }
1549:Generated_Source\PSoC5/CapSense_1_CSHL.c ****         else
1550:Generated_Source\PSoC5/CapSense_1_CSHL.c ****         {
1551:Generated_Source\PSoC5/CapSense_1_CSHL.c ****             /* The maximum didn't find */
1552:Generated_Source\PSoC5/CapSense_1_CSHL.c ****             position = 0xFFFFu;
1553:Generated_Source\PSoC5/CapSense_1_CSHL.c **** 
1554:Generated_Source\PSoC5/CapSense_1_CSHL.c ****             #if (0u != CapSense_1_RADIAL_SLIDERS_POS_FILTERS_MASK)
1555:Generated_Source\PSoC5/CapSense_1_CSHL.c ****                 /* Reset the filters */
1556:Generated_Source\PSoC5/CapSense_1_CSHL.c ****                 if((posFiltersMask & CapSense_1_ANY_POS_FILTER) != 0u)
1557:Generated_Source\PSoC5/CapSense_1_CSHL.c ****                 {
1558:Generated_Source\PSoC5/CapSense_1_CSHL.c ****                     CapSense_1_posFiltersData[firstTimeIndex] = 0u;
1559:Generated_Source\PSoC5/CapSense_1_CSHL.c ****                 }
1560:Generated_Source\PSoC5/CapSense_1_CSHL.c ****             #endif /* (0u != CapSense_1_RADIAL_SLIDERS_POS_FILTERS_MASK) */
1561:Generated_Source\PSoC5/CapSense_1_CSHL.c ****         }
1562:Generated_Source\PSoC5/CapSense_1_CSHL.c ****         
1563:Generated_Source\PSoC5/CapSense_1_CSHL.c ****         return (position);
1564:Generated_Source\PSoC5/CapSense_1_CSHL.c ****     }
1565:Generated_Source\PSoC5/CapSense_1_CSHL.c **** #endif
1566:Generated_Source\PSoC5/CapSense_1_CSHL.c **** 
1567:Generated_Source\PSoC5/CapSense_1_CSHL.c **** 
1568:Generated_Source\PSoC5/CapSense_1_CSHL.c **** #if(CapSense_1_TOTAL_TOUCH_PADS_COUNT > 0u)
1569:Generated_Source\PSoC5/CapSense_1_CSHL.c ****     /*******************************************************************************
1570:Generated_Source\PSoC5/CapSense_1_CSHL.c ****     * Function Name: CapSense_1_GetTouchCentroidPos
1571:Generated_Source\PSoC5/CapSense_1_CSHL.c ****     ********************************************************************************
1572:Generated_Source\PSoC5/CapSense_1_CSHL.c ****     *
1573:Generated_Source\PSoC5/CapSense_1_CSHL.c ****     * Summary:
1574:Generated_Source\PSoC5/CapSense_1_CSHL.c ****     *  If a finger is present on touch pad, this function calculates the X and Y
1575:Generated_Source\PSoC5/CapSense_1_CSHL.c ****     *  position of the finger by calculating the centroids within touch pad specified
1576:Generated_Source\PSoC5/CapSense_1_CSHL.c ****     *  range. The X and Y positions are calculated to the API resolutions set in the
1577:Generated_Source\PSoC5/CapSense_1_CSHL.c ****     *  CapSense customizer. Returns a 1 if a finger is on the touchpad.
1578:Generated_Source\PSoC5/CapSense_1_CSHL.c ****     *  The position filter is applied to the result if enabled.
1579:Generated_Source\PSoC5/CapSense_1_CSHL.c ****     *  This function is available only if a touch pad is defined by the CapSense
1580:Generated_Source\PSoC5/CapSense_1_CSHL.c ****     *  customizer.
1581:Generated_Source\PSoC5/CapSense_1_CSHL.c ****     *
1582:Generated_Source\PSoC5/CapSense_1_CSHL.c ****     * Parameters:
1583:Generated_Source\PSoC5/CapSense_1_CSHL.c ****     *  widget:  Widget number. 
1584:Generated_Source\PSoC5/CapSense_1_CSHL.c ****     *  For every touchpad widget there are defines in this format:
1585:Generated_Source\PSoC5/CapSense_1_CSHL.c ****     *  #define CapSense_1_TP_"widget_name"            5
1586:Generated_Source\PSoC5/CapSense_1_CSHL.c ****     *
1587:Generated_Source\PSoC5/CapSense_1_CSHL.c ****     *  pos:     Pointer to the array of two uint16 elements, where result
1588:Generated_Source\PSoC5/CapSense_1_CSHL.c ****     *  result of calculation of X and Y position are stored.
1589:Generated_Source\PSoC5/CapSense_1_CSHL.c ****     *  pos[0u]  - position of X
1590:Generated_Source\PSoC5/CapSense_1_CSHL.c ****     *  pos[1u]  - position of Y
1591:Generated_Source\PSoC5/CapSense_1_CSHL.c ****     *
1592:Generated_Source\PSoC5/CapSense_1_CSHL.c ****     * Return:
1593:Generated_Source\PSoC5/CapSense_1_CSHL.c ****     *  Returns a 1 if a finger is on the touch pad, 0 - if not.
1594:Generated_Source\PSoC5/CapSense_1_CSHL.c ****     *
1595:Generated_Source\PSoC5/CapSense_1_CSHL.c ****     * Side Effects:
1596:Generated_Source\PSoC5/CapSense_1_CSHL.c ****     *   There are no checks of widget type argument provided to this function.
1597:Generated_Source\PSoC5/CapSense_1_CSHL.c ****     *   The unproper widget type provided will cause unexpected position
1598:Generated_Source\PSoC5/CapSense_1_CSHL.c ****     *   calculations.
ARM GAS  C:\Users\holge\AppData\Local\Temp\ccXKJRa1.s 			page 46


1599:Generated_Source\PSoC5/CapSense_1_CSHL.c ****     *
1600:Generated_Source\PSoC5/CapSense_1_CSHL.c ****     * Reentrant:
1601:Generated_Source\PSoC5/CapSense_1_CSHL.c ****     *  No.
1602:Generated_Source\PSoC5/CapSense_1_CSHL.c ****     *
1603:Generated_Source\PSoC5/CapSense_1_CSHL.c ****     *******************************************************************************/
1604:Generated_Source\PSoC5/CapSense_1_CSHL.c ****     uint8 CapSense_1_GetTouchCentroidPos(uint8 widget, uint16* pos)
1605:Generated_Source\PSoC5/CapSense_1_CSHL.c **** 	                                    
1606:Generated_Source\PSoC5/CapSense_1_CSHL.c ****     {
1607:Generated_Source\PSoC5/CapSense_1_CSHL.c ****         #if (0u != CapSense_1_TOUCH_PADS_POS_FILTERS_MASK)
1608:Generated_Source\PSoC5/CapSense_1_CSHL.c ****             uint8 posXIndex;
1609:Generated_Source\PSoC5/CapSense_1_CSHL.c ****             uint8 posYIndex;
1610:Generated_Source\PSoC5/CapSense_1_CSHL.c ****             uint8 firstTimeIndex = CapSense_1_posFiltersData[widget];
1611:Generated_Source\PSoC5/CapSense_1_CSHL.c ****             uint8 posFiltersMask = CapSense_1_posFiltersMask[widget];
1612:Generated_Source\PSoC5/CapSense_1_CSHL.c ****         #endif /* (0u != CapSense_1_TOUCH_PADS_POS_FILTERS_MASK) */
1613:Generated_Source\PSoC5/CapSense_1_CSHL.c **** 
1614:Generated_Source\PSoC5/CapSense_1_CSHL.c ****         #if ((0u != (CapSense_1_MEDIAN_FILTER & CapSense_1_TOUCH_PADS_POS_FILTERS_MASK)) || \
1615:Generated_Source\PSoC5/CapSense_1_CSHL.c ****              (0u != (CapSense_1_AVERAGING_FILTER & CapSense_1_TOUCH_PADS_POS_FILTERS_MASK)))
1616:Generated_Source\PSoC5/CapSense_1_CSHL.c ****             uint16 tempPos;
1617:Generated_Source\PSoC5/CapSense_1_CSHL.c ****         #endif /* ((0u != (CapSense_1_MEDIAN_FILTER & CapSense_1_TOUCH_PADS_POS_FILTERS_MASK)) || \
1618:Generated_Source\PSoC5/CapSense_1_CSHL.c ****                *   (0u != (CapSense_1_AVERAGING_FILTER & CapSense_1_TOUCH_PADS_POS_FILTERS_MASK)))
1619:Generated_Source\PSoC5/CapSense_1_CSHL.c ****                */
1620:Generated_Source\PSoC5/CapSense_1_CSHL.c **** 
1621:Generated_Source\PSoC5/CapSense_1_CSHL.c ****         uint8 maxX;
1622:Generated_Source\PSoC5/CapSense_1_CSHL.c ****         uint8 maxY;
1623:Generated_Source\PSoC5/CapSense_1_CSHL.c ****         uint8 posX;
1624:Generated_Source\PSoC5/CapSense_1_CSHL.c ****         uint8 posY;
1625:Generated_Source\PSoC5/CapSense_1_CSHL.c ****         uint8 touch = 0u;
1626:Generated_Source\PSoC5/CapSense_1_CSHL.c ****         uint8 offset = CapSense_1_rawDataIndex[widget];
1627:Generated_Source\PSoC5/CapSense_1_CSHL.c ****         uint8 count = CapSense_1_numberOfSensors[widget];
1628:Generated_Source\PSoC5/CapSense_1_CSHL.c ****         
1629:Generated_Source\PSoC5/CapSense_1_CSHL.c ****         /* Find Maximum within X centroid */
1630:Generated_Source\PSoC5/CapSense_1_CSHL.c ****         #if (CapSense_1_IS_DIPLEX_SLIDER)
1631:Generated_Source\PSoC5/CapSense_1_CSHL.c ****             maxX = CapSense_1_FindMaximum(offset, count, CapSense_1_fingerThreshold[widget], 0u);
1632:Generated_Source\PSoC5/CapSense_1_CSHL.c ****         #else
1633:Generated_Source\PSoC5/CapSense_1_CSHL.c ****             maxX = CapSense_1_FindMaximum(offset, count, CapSense_1_fingerThreshold[widget]);
1634:Generated_Source\PSoC5/CapSense_1_CSHL.c ****         #endif /* (CapSense_1_IS_DIPLEX_SLIDER) */
1635:Generated_Source\PSoC5/CapSense_1_CSHL.c **** 
1636:Generated_Source\PSoC5/CapSense_1_CSHL.c ****         if (maxX != 0xFFu)
1637:Generated_Source\PSoC5/CapSense_1_CSHL.c ****         {
1638:Generated_Source\PSoC5/CapSense_1_CSHL.c ****             offset = CapSense_1_rawDataIndex[widget + 1u];
1639:Generated_Source\PSoC5/CapSense_1_CSHL.c ****             count = CapSense_1_numberOfSensors[widget + 1u];
1640:Generated_Source\PSoC5/CapSense_1_CSHL.c **** 
1641:Generated_Source\PSoC5/CapSense_1_CSHL.c ****             /* Find Maximum within Y centroid */
1642:Generated_Source\PSoC5/CapSense_1_CSHL.c ****             #if (CapSense_1_IS_DIPLEX_SLIDER)
1643:Generated_Source\PSoC5/CapSense_1_CSHL.c ****                 maxY = CapSense_1_FindMaximum(offset, count, CapSense_1_fingerThreshold[widget + 1u
1644:Generated_Source\PSoC5/CapSense_1_CSHL.c ****             #else
1645:Generated_Source\PSoC5/CapSense_1_CSHL.c ****                 maxY = CapSense_1_FindMaximum(offset, count, CapSense_1_fingerThreshold[widget + 1u
1646:Generated_Source\PSoC5/CapSense_1_CSHL.c ****             #endif /* (CapSense_1_IS_DIPLEX_SLIDER) */
1647:Generated_Source\PSoC5/CapSense_1_CSHL.c **** 
1648:Generated_Source\PSoC5/CapSense_1_CSHL.c ****             if (maxY != 0xFFu)
1649:Generated_Source\PSoC5/CapSense_1_CSHL.c ****             {
1650:Generated_Source\PSoC5/CapSense_1_CSHL.c ****                 /* X and Y maximums are found = true touch */
1651:Generated_Source\PSoC5/CapSense_1_CSHL.c ****                 touch = 1u;
1652:Generated_Source\PSoC5/CapSense_1_CSHL.c ****                 
1653:Generated_Source\PSoC5/CapSense_1_CSHL.c ****                 /* Calculate Y centroid */
1654:Generated_Source\PSoC5/CapSense_1_CSHL.c ****                 posY = CapSense_1_CalcCentroid(maxY, offset, count, 
1655:Generated_Source\PSoC5/CapSense_1_CSHL.c ****                             CapSense_1_centroidMult[widget + 1u], CapSense_1_noiseThreshold[widget 
ARM GAS  C:\Users\holge\AppData\Local\Temp\ccXKJRa1.s 			page 47


1656:Generated_Source\PSoC5/CapSense_1_CSHL.c ****                 
1657:Generated_Source\PSoC5/CapSense_1_CSHL.c ****                 /* Calculate X centroid */
1658:Generated_Source\PSoC5/CapSense_1_CSHL.c ****                 offset = CapSense_1_rawDataIndex[widget];
1659:Generated_Source\PSoC5/CapSense_1_CSHL.c ****                 count = CapSense_1_numberOfSensors[widget];
1660:Generated_Source\PSoC5/CapSense_1_CSHL.c ****                 
1661:Generated_Source\PSoC5/CapSense_1_CSHL.c ****                 posX = CapSense_1_CalcCentroid(maxX, offset, count, 
1662:Generated_Source\PSoC5/CapSense_1_CSHL.c ****                             CapSense_1_centroidMult[widget],CapSense_1_noiseThreshold[widget]);
1663:Generated_Source\PSoC5/CapSense_1_CSHL.c ****     
1664:Generated_Source\PSoC5/CapSense_1_CSHL.c ****                 #if (0u != CapSense_1_TOUCH_PADS_POS_FILTERS_MASK)
1665:Generated_Source\PSoC5/CapSense_1_CSHL.c ****                     /* Check if this TP has enabled filters */
1666:Generated_Source\PSoC5/CapSense_1_CSHL.c ****                     if (0u != (posFiltersMask & CapSense_1_ANY_POS_FILTER))
1667:Generated_Source\PSoC5/CapSense_1_CSHL.c ****                     {
1668:Generated_Source\PSoC5/CapSense_1_CSHL.c ****                         /* Caluclate position to store filters data */
1669:Generated_Source\PSoC5/CapSense_1_CSHL.c ****                         posXIndex  = firstTimeIndex + 1u;
1670:Generated_Source\PSoC5/CapSense_1_CSHL.c ****                         posYIndex  = CapSense_1_posFiltersData[widget + 1u];
1671:Generated_Source\PSoC5/CapSense_1_CSHL.c ****                         
1672:Generated_Source\PSoC5/CapSense_1_CSHL.c ****                         if (0u == CapSense_1_posFiltersData[firstTimeIndex])
1673:Generated_Source\PSoC5/CapSense_1_CSHL.c ****                         {
1674:Generated_Source\PSoC5/CapSense_1_CSHL.c ****                             /* Init filters */
1675:Generated_Source\PSoC5/CapSense_1_CSHL.c ****                             CapSense_1_posFiltersData[posXIndex] = posX;
1676:Generated_Source\PSoC5/CapSense_1_CSHL.c ****                             CapSense_1_posFiltersData[posYIndex] = posY;
1677:Generated_Source\PSoC5/CapSense_1_CSHL.c **** 
1678:Generated_Source\PSoC5/CapSense_1_CSHL.c ****                             #if((0u != (CapSense_1_MEDIAN_FILTER & \
1679:Generated_Source\PSoC5/CapSense_1_CSHL.c ****                                         CapSense_1_TOUCH_PADS_POS_FILTERS_MASK))|| \
1680:Generated_Source\PSoC5/CapSense_1_CSHL.c ****                                 (0u != (CapSense_1_AVERAGING_FILTER & \
1681:Generated_Source\PSoC5/CapSense_1_CSHL.c ****                                         CapSense_1_TOUCH_PADS_POS_FILTERS_MASK)))
1682:Generated_Source\PSoC5/CapSense_1_CSHL.c **** 
1683:Generated_Source\PSoC5/CapSense_1_CSHL.c ****                                 if ( (0u != (posFiltersMask & CapSense_1_MEDIAN_FILTER)) || 
1684:Generated_Source\PSoC5/CapSense_1_CSHL.c ****                                      (0u != (posFiltersMask & CapSense_1_AVERAGING_FILTER)) )
1685:Generated_Source\PSoC5/CapSense_1_CSHL.c ****                                 {
1686:Generated_Source\PSoC5/CapSense_1_CSHL.c ****                                     CapSense_1_posFiltersData[posXIndex + 1u] = posX;
1687:Generated_Source\PSoC5/CapSense_1_CSHL.c ****                                     CapSense_1_posFiltersData[posYIndex + 1u] = posY;
1688:Generated_Source\PSoC5/CapSense_1_CSHL.c ****                                 }
1689:Generated_Source\PSoC5/CapSense_1_CSHL.c ****                             #endif /* ((0u != (CapSense_1_MEDIAN_FILTER & \
1690:Generated_Source\PSoC5/CapSense_1_CSHL.c ****                                    *           CapSense_1_TOUCH_PADS_POS_FILTERS_MASK)) || \
1691:Generated_Source\PSoC5/CapSense_1_CSHL.c ****                                    *    (0u != (CapSense_1_AVERAGING_FILTER & \
1692:Generated_Source\PSoC5/CapSense_1_CSHL.c ****                                    *            CapSense_1_TOUCH_PADS_POS_FILTERS_MASK)))
1693:Generated_Source\PSoC5/CapSense_1_CSHL.c ****                                    */
1694:Generated_Source\PSoC5/CapSense_1_CSHL.c ****                             
1695:Generated_Source\PSoC5/CapSense_1_CSHL.c ****                             CapSense_1_posFiltersData[firstTimeIndex] = 1u;
1696:Generated_Source\PSoC5/CapSense_1_CSHL.c ****                         }
1697:Generated_Source\PSoC5/CapSense_1_CSHL.c ****                         else
1698:Generated_Source\PSoC5/CapSense_1_CSHL.c ****                         {
1699:Generated_Source\PSoC5/CapSense_1_CSHL.c ****                             /* Do filtering */
1700:Generated_Source\PSoC5/CapSense_1_CSHL.c ****                             #if (0u != (CapSense_1_MEDIAN_FILTER & CapSense_1_TOUCH_PADS_POS_FILTER
1701:Generated_Source\PSoC5/CapSense_1_CSHL.c ****                                 if (0u != (posFiltersMask & CapSense_1_MEDIAN_FILTER))
1702:Generated_Source\PSoC5/CapSense_1_CSHL.c ****                                 {
1703:Generated_Source\PSoC5/CapSense_1_CSHL.c ****                                     tempPos = posX;
1704:Generated_Source\PSoC5/CapSense_1_CSHL.c ****                                     posX = (uint8) CapSense_1_MedianFilter(posX,
1705:Generated_Source\PSoC5/CapSense_1_CSHL.c ****                                                                       CapSense_1_posFiltersData[pos
1706:Generated_Source\PSoC5/CapSense_1_CSHL.c ****                                                                       CapSense_1_posFiltersData[pos
1707:Generated_Source\PSoC5/CapSense_1_CSHL.c ****                                     CapSense_1_posFiltersData[posXIndex + 1u] = 
1708:Generated_Source\PSoC5/CapSense_1_CSHL.c ****                                                                              CapSense_1_posFiltersD
1709:Generated_Source\PSoC5/CapSense_1_CSHL.c ****                                     CapSense_1_posFiltersData[posXIndex] = tempPos;
1710:Generated_Source\PSoC5/CapSense_1_CSHL.c ****                                     
1711:Generated_Source\PSoC5/CapSense_1_CSHL.c ****                                     tempPos = posY;
1712:Generated_Source\PSoC5/CapSense_1_CSHL.c ****                                     posY = (uint8) CapSense_1_MedianFilter(posY,
ARM GAS  C:\Users\holge\AppData\Local\Temp\ccXKJRa1.s 			page 48


1713:Generated_Source\PSoC5/CapSense_1_CSHL.c ****                                                                        CapSense_1_posFiltersData[po
1714:Generated_Source\PSoC5/CapSense_1_CSHL.c ****                                                                        CapSense_1_posFiltersData[po
1715:Generated_Source\PSoC5/CapSense_1_CSHL.c ****                                     CapSense_1_posFiltersData[posYIndex + 1u] = 
1716:Generated_Source\PSoC5/CapSense_1_CSHL.c ****                                                                              CapSense_1_posFiltersD
1717:Generated_Source\PSoC5/CapSense_1_CSHL.c ****                                     CapSense_1_posFiltersData[posYIndex] = tempPos;
1718:Generated_Source\PSoC5/CapSense_1_CSHL.c ****                                 }
1719:Generated_Source\PSoC5/CapSense_1_CSHL.c ****                                 
1720:Generated_Source\PSoC5/CapSense_1_CSHL.c ****                             #endif /* (0u != (CapSense_1_MEDIAN_FILTER & \
1721:Generated_Source\PSoC5/CapSense_1_CSHL.c ****                                    *          CapSense_1_TOUCH_PADS_POS_FILTERS_MASK))
1722:Generated_Source\PSoC5/CapSense_1_CSHL.c ****                                    */
1723:Generated_Source\PSoC5/CapSense_1_CSHL.c **** 
1724:Generated_Source\PSoC5/CapSense_1_CSHL.c ****                             #if(0u !=(CapSense_1_AVERAGING_FILTER & CapSense_1_TOUCH_PADS_POS_FILTE
1725:Generated_Source\PSoC5/CapSense_1_CSHL.c ****                                 if (0u != (posFiltersMask & CapSense_1_AVERAGING_FILTER))
1726:Generated_Source\PSoC5/CapSense_1_CSHL.c ****                                 {
1727:Generated_Source\PSoC5/CapSense_1_CSHL.c ****                                     tempPos = posX;
1728:Generated_Source\PSoC5/CapSense_1_CSHL.c ****                                     posX = (uint8) CapSense_1_AveragingFilter(posX,
1729:Generated_Source\PSoC5/CapSense_1_CSHL.c ****                                                                        CapSense_1_posFiltersData[po
1730:Generated_Source\PSoC5/CapSense_1_CSHL.c ****                                                                        CapSense_1_posFiltersData[po
1731:Generated_Source\PSoC5/CapSense_1_CSHL.c ****                                     CapSense_1_posFiltersData[posXIndex + 1u] = 
1732:Generated_Source\PSoC5/CapSense_1_CSHL.c ****                                                                              CapSense_1_posFiltersD
1733:Generated_Source\PSoC5/CapSense_1_CSHL.c ****                                     CapSense_1_posFiltersData[posXIndex] = tempPos;
1734:Generated_Source\PSoC5/CapSense_1_CSHL.c ****                                     
1735:Generated_Source\PSoC5/CapSense_1_CSHL.c ****                                     tempPos = posY;
1736:Generated_Source\PSoC5/CapSense_1_CSHL.c ****                                     posY = (uint8) CapSense_1_AveragingFilter(posY, 
1737:Generated_Source\PSoC5/CapSense_1_CSHL.c ****                                                                       CapSense_1_posFiltersData[pos
1738:Generated_Source\PSoC5/CapSense_1_CSHL.c ****                                                                       CapSense_1_posFiltersData[pos
1739:Generated_Source\PSoC5/CapSense_1_CSHL.c ****                                     CapSense_1_posFiltersData[posYIndex + 1u] = 
1740:Generated_Source\PSoC5/CapSense_1_CSHL.c ****                                                                             CapSense_1_posFiltersDa
1741:Generated_Source\PSoC5/CapSense_1_CSHL.c ****                                     CapSense_1_posFiltersData[posYIndex] = tempPos;
1742:Generated_Source\PSoC5/CapSense_1_CSHL.c ****                                 }
1743:Generated_Source\PSoC5/CapSense_1_CSHL.c **** 
1744:Generated_Source\PSoC5/CapSense_1_CSHL.c ****                             #endif /* (0u != (CapSense_1_AVERAGING_FILTER & \
1745:Generated_Source\PSoC5/CapSense_1_CSHL.c ****                                    *           CapSense_1_TOUCH_PADS_POS_FILTERS_MASK))
1746:Generated_Source\PSoC5/CapSense_1_CSHL.c ****                                    */
1747:Generated_Source\PSoC5/CapSense_1_CSHL.c **** 
1748:Generated_Source\PSoC5/CapSense_1_CSHL.c ****                             #if (0u != (CapSense_1_IIR2_FILTER & CapSense_1_TOUCH_PADS_POS_FILTERS_
1749:Generated_Source\PSoC5/CapSense_1_CSHL.c ****                                 if (0u != (posFiltersMask & CapSense_1_IIR2_FILTER))
1750:Generated_Source\PSoC5/CapSense_1_CSHL.c ****                                 {
1751:Generated_Source\PSoC5/CapSense_1_CSHL.c ****                                     posX = (uint8) CapSense_1_IIR2Filter(posX, 
1752:Generated_Source\PSoC5/CapSense_1_CSHL.c ****                                                                            CapSense_1_posFiltersDat
1753:Generated_Source\PSoC5/CapSense_1_CSHL.c ****                                     CapSense_1_posFiltersData[posXIndex] = posX;
1754:Generated_Source\PSoC5/CapSense_1_CSHL.c ****                                     
1755:Generated_Source\PSoC5/CapSense_1_CSHL.c ****                                     posY = (uint8) CapSense_1_IIR2Filter(posY, 
1756:Generated_Source\PSoC5/CapSense_1_CSHL.c ****                                                                             CapSense_1_posFiltersDa
1757:Generated_Source\PSoC5/CapSense_1_CSHL.c ****                                     CapSense_1_posFiltersData[posYIndex] = posY;
1758:Generated_Source\PSoC5/CapSense_1_CSHL.c ****                                 }
1759:Generated_Source\PSoC5/CapSense_1_CSHL.c ****                                 
1760:Generated_Source\PSoC5/CapSense_1_CSHL.c ****                             #endif /* (0u != (CapSense_1_IIR2_FILTER & \
1761:Generated_Source\PSoC5/CapSense_1_CSHL.c ****                                    *          CapSense_1_TOUCH_PADS_POS_FILTERS_MASK))
1762:Generated_Source\PSoC5/CapSense_1_CSHL.c ****                                    */
1763:Generated_Source\PSoC5/CapSense_1_CSHL.c **** 
1764:Generated_Source\PSoC5/CapSense_1_CSHL.c ****                             #if (0u != (CapSense_1_IIR4_FILTER & CapSense_1_TOUCH_PADS_POS_FILTERS_
1765:Generated_Source\PSoC5/CapSense_1_CSHL.c ****                                 if (0u != (posFiltersMask & CapSense_1_IIR4_FILTER))
1766:Generated_Source\PSoC5/CapSense_1_CSHL.c ****                                 {
1767:Generated_Source\PSoC5/CapSense_1_CSHL.c ****                                     posX = (uint8) CapSense_1_IIR4Filter((uint16)posX,
1768:Generated_Source\PSoC5/CapSense_1_CSHL.c ****                                                                     (uint16)CapSense_1_posFiltersDa
1769:Generated_Source\PSoC5/CapSense_1_CSHL.c ****                                     CapSense_1_posFiltersData[posXIndex] = posX;
ARM GAS  C:\Users\holge\AppData\Local\Temp\ccXKJRa1.s 			page 49


1770:Generated_Source\PSoC5/CapSense_1_CSHL.c **** 
1771:Generated_Source\PSoC5/CapSense_1_CSHL.c ****                                     posY = (uint8) CapSense_1_IIR4Filter((uint16)posY,
1772:Generated_Source\PSoC5/CapSense_1_CSHL.c ****                                                                     (uint16)CapSense_1_posFiltersDa
1773:Generated_Source\PSoC5/CapSense_1_CSHL.c ****                                     CapSense_1_posFiltersData[posYIndex] = posY;
1774:Generated_Source\PSoC5/CapSense_1_CSHL.c ****                                 }
1775:Generated_Source\PSoC5/CapSense_1_CSHL.c ****                                 
1776:Generated_Source\PSoC5/CapSense_1_CSHL.c ****                             #endif /* (0u != (CapSense_1_IIR4_FILTER & \
1777:Generated_Source\PSoC5/CapSense_1_CSHL.c ****                                    *           CapSense_1_TOUCH_PADS_POS_FILTERS_MASK))
1778:Generated_Source\PSoC5/CapSense_1_CSHL.c ****                                    */
1779:Generated_Source\PSoC5/CapSense_1_CSHL.c **** 
1780:Generated_Source\PSoC5/CapSense_1_CSHL.c ****                             #if (0u != (CapSense_1_JITTER_FILTER & CapSense_1_TOUCH_PADS_POS_FILTER
1781:Generated_Source\PSoC5/CapSense_1_CSHL.c ****                                 if (0u != (posFiltersMask & CapSense_1_JITTER_FILTER))
1782:Generated_Source\PSoC5/CapSense_1_CSHL.c ****                                     {
1783:Generated_Source\PSoC5/CapSense_1_CSHL.c ****                                         posX = (uint8) CapSense_1_JitterFilter(posX, 
1784:Generated_Source\PSoC5/CapSense_1_CSHL.c ****                                                                             CapSense_1_posFiltersDa
1785:Generated_Source\PSoC5/CapSense_1_CSHL.c ****                                         CapSense_1_posFiltersData[posXIndex] = posX;
1786:Generated_Source\PSoC5/CapSense_1_CSHL.c ****                                         
1787:Generated_Source\PSoC5/CapSense_1_CSHL.c ****                                         posY = (uint8) CapSense_1_JitterFilter(posY, 
1788:Generated_Source\PSoC5/CapSense_1_CSHL.c ****                                                                             CapSense_1_posFiltersDa
1789:Generated_Source\PSoC5/CapSense_1_CSHL.c ****                                         CapSense_1_posFiltersData[posYIndex] = posY;
1790:Generated_Source\PSoC5/CapSense_1_CSHL.c ****                                     }
1791:Generated_Source\PSoC5/CapSense_1_CSHL.c ****                             #endif /* (0u != (CapSense_1_JITTER_FILTER & \
1792:Generated_Source\PSoC5/CapSense_1_CSHL.c ****                                    *           CapSense_1_TOUCH_PADS_POS_FILTERS_MASK))
1793:Generated_Source\PSoC5/CapSense_1_CSHL.c ****                                    */
1794:Generated_Source\PSoC5/CapSense_1_CSHL.c ****                         }
1795:Generated_Source\PSoC5/CapSense_1_CSHL.c ****                     }
1796:Generated_Source\PSoC5/CapSense_1_CSHL.c ****                 #endif /* (0u != CapSense_1_TOUCH_PADS_POS_FILTERS_MASK) */
1797:Generated_Source\PSoC5/CapSense_1_CSHL.c **** 
1798:Generated_Source\PSoC5/CapSense_1_CSHL.c ****                 /* Save positions */
1799:Generated_Source\PSoC5/CapSense_1_CSHL.c ****                 pos[0u] = posX;
1800:Generated_Source\PSoC5/CapSense_1_CSHL.c ****                 pos[1u] = posY;
1801:Generated_Source\PSoC5/CapSense_1_CSHL.c ****             }
1802:Generated_Source\PSoC5/CapSense_1_CSHL.c ****         }
1803:Generated_Source\PSoC5/CapSense_1_CSHL.c **** 
1804:Generated_Source\PSoC5/CapSense_1_CSHL.c ****         #if (0u != CapSense_1_TOUCH_PADS_POS_FILTERS_MASK)
1805:Generated_Source\PSoC5/CapSense_1_CSHL.c ****             if(touch == 0u)
1806:Generated_Source\PSoC5/CapSense_1_CSHL.c ****             {
1807:Generated_Source\PSoC5/CapSense_1_CSHL.c ****                 /* Reset the filters */
1808:Generated_Source\PSoC5/CapSense_1_CSHL.c ****                 if ((posFiltersMask & CapSense_1_ANY_POS_FILTER) != 0u)
1809:Generated_Source\PSoC5/CapSense_1_CSHL.c ****                 {
1810:Generated_Source\PSoC5/CapSense_1_CSHL.c ****                     CapSense_1_posFiltersData[firstTimeIndex] = 0u;
1811:Generated_Source\PSoC5/CapSense_1_CSHL.c ****                 }
1812:Generated_Source\PSoC5/CapSense_1_CSHL.c ****             }
1813:Generated_Source\PSoC5/CapSense_1_CSHL.c ****         #endif /* (0u != CapSense_1_TOUCH_PADS_POS_FILTERS_MASK) */
1814:Generated_Source\PSoC5/CapSense_1_CSHL.c ****         
1815:Generated_Source\PSoC5/CapSense_1_CSHL.c ****         return (touch);
1816:Generated_Source\PSoC5/CapSense_1_CSHL.c ****     }
1817:Generated_Source\PSoC5/CapSense_1_CSHL.c **** #endif /* (CapSense_1_TOTAL_TOUCH_PADS_COUNT > 0u) */
1818:Generated_Source\PSoC5/CapSense_1_CSHL.c **** 
1819:Generated_Source\PSoC5/CapSense_1_CSHL.c **** 
1820:Generated_Source\PSoC5/CapSense_1_CSHL.c **** #if ( (CapSense_1_RAW_FILTER_MASK & CapSense_1_MEDIAN_FILTER) | \
1821:Generated_Source\PSoC5/CapSense_1_CSHL.c ****       (CapSense_1_POS_FILTERS_MASK & CapSense_1_MEDIAN_FILTER) )
1822:Generated_Source\PSoC5/CapSense_1_CSHL.c ****     /*******************************************************************************
1823:Generated_Source\PSoC5/CapSense_1_CSHL.c ****     * Function Name: CapSense_1_MedianFilter
1824:Generated_Source\PSoC5/CapSense_1_CSHL.c ****     ********************************************************************************
1825:Generated_Source\PSoC5/CapSense_1_CSHL.c ****     *
1826:Generated_Source\PSoC5/CapSense_1_CSHL.c ****     * Summary:
ARM GAS  C:\Users\holge\AppData\Local\Temp\ccXKJRa1.s 			page 50


1827:Generated_Source\PSoC5/CapSense_1_CSHL.c ****     *  Median filter function. 
1828:Generated_Source\PSoC5/CapSense_1_CSHL.c ****     *  The median filter looks at the three most recent samples and reports the 
1829:Generated_Source\PSoC5/CapSense_1_CSHL.c ****     *  median value.
1830:Generated_Source\PSoC5/CapSense_1_CSHL.c ****     *
1831:Generated_Source\PSoC5/CapSense_1_CSHL.c ****     * Parameters:
1832:Generated_Source\PSoC5/CapSense_1_CSHL.c ****     *  x1:  Current value.
1833:Generated_Source\PSoC5/CapSense_1_CSHL.c ****     *  x2:  Previous value.
1834:Generated_Source\PSoC5/CapSense_1_CSHL.c ****     *  x3:  Before previous value.
1835:Generated_Source\PSoC5/CapSense_1_CSHL.c ****     *
1836:Generated_Source\PSoC5/CapSense_1_CSHL.c ****     * Return:
1837:Generated_Source\PSoC5/CapSense_1_CSHL.c ****     *  Returns filtered value.
1838:Generated_Source\PSoC5/CapSense_1_CSHL.c ****     *
1839:Generated_Source\PSoC5/CapSense_1_CSHL.c ****     *******************************************************************************/
1840:Generated_Source\PSoC5/CapSense_1_CSHL.c ****     uint16 CapSense_1_MedianFilter(uint16 x1, uint16 x2, uint16 x3)
1841:Generated_Source\PSoC5/CapSense_1_CSHL.c ****                                          
1842:Generated_Source\PSoC5/CapSense_1_CSHL.c ****     {
1843:Generated_Source\PSoC5/CapSense_1_CSHL.c ****         uint16 tmp;
1844:Generated_Source\PSoC5/CapSense_1_CSHL.c ****         
1845:Generated_Source\PSoC5/CapSense_1_CSHL.c ****         if (x1 > x2)
1846:Generated_Source\PSoC5/CapSense_1_CSHL.c ****         {
1847:Generated_Source\PSoC5/CapSense_1_CSHL.c ****             tmp = x2;
1848:Generated_Source\PSoC5/CapSense_1_CSHL.c ****             x2 = x1;
1849:Generated_Source\PSoC5/CapSense_1_CSHL.c ****             x1 = tmp;
1850:Generated_Source\PSoC5/CapSense_1_CSHL.c ****         }
1851:Generated_Source\PSoC5/CapSense_1_CSHL.c ****         
1852:Generated_Source\PSoC5/CapSense_1_CSHL.c ****         if (x2 > x3)
1853:Generated_Source\PSoC5/CapSense_1_CSHL.c ****         {
1854:Generated_Source\PSoC5/CapSense_1_CSHL.c ****             x2 = x3;
1855:Generated_Source\PSoC5/CapSense_1_CSHL.c ****         }
1856:Generated_Source\PSoC5/CapSense_1_CSHL.c ****         
1857:Generated_Source\PSoC5/CapSense_1_CSHL.c ****         return ((x1 > x2) ? x1 : x2);
1858:Generated_Source\PSoC5/CapSense_1_CSHL.c ****     }
1859:Generated_Source\PSoC5/CapSense_1_CSHL.c **** #endif /* ( (CapSense_1_RAW_FILTER_MASK & CapSense_1_MEDIAN_FILTER) | \
1860:Generated_Source\PSoC5/CapSense_1_CSHL.c ****        *    (CapSense_1_POS_FILTERS_MASK & CapSense_1_MEDIAN_FILTER) )
1861:Generated_Source\PSoC5/CapSense_1_CSHL.c ****        */
1862:Generated_Source\PSoC5/CapSense_1_CSHL.c **** 
1863:Generated_Source\PSoC5/CapSense_1_CSHL.c **** 
1864:Generated_Source\PSoC5/CapSense_1_CSHL.c **** #if ( (CapSense_1_RAW_FILTER_MASK & CapSense_1_AVERAGING_FILTER) | \
1865:Generated_Source\PSoC5/CapSense_1_CSHL.c ****       (CapSense_1_POS_FILTERS_MASK & CapSense_1_AVERAGING_FILTER) )
1866:Generated_Source\PSoC5/CapSense_1_CSHL.c ****     /*******************************************************************************
1867:Generated_Source\PSoC5/CapSense_1_CSHL.c ****     * Function Name: CapSense_1_AveragingFilter
1868:Generated_Source\PSoC5/CapSense_1_CSHL.c ****     ********************************************************************************
1869:Generated_Source\PSoC5/CapSense_1_CSHL.c ****     *
1870:Generated_Source\PSoC5/CapSense_1_CSHL.c ****     * Summary:
1871:Generated_Source\PSoC5/CapSense_1_CSHL.c ****     *  Averaging filter function.
1872:Generated_Source\PSoC5/CapSense_1_CSHL.c ****     *  The averaging filter looks at the three most recent samples of position and
1873:Generated_Source\PSoC5/CapSense_1_CSHL.c ****     *  reports the averaging value.
1874:Generated_Source\PSoC5/CapSense_1_CSHL.c ****     *
1875:Generated_Source\PSoC5/CapSense_1_CSHL.c ****     * Parameters:
1876:Generated_Source\PSoC5/CapSense_1_CSHL.c ****     *  x1:  Current value.
1877:Generated_Source\PSoC5/CapSense_1_CSHL.c ****     *  x2:  Previous value.
1878:Generated_Source\PSoC5/CapSense_1_CSHL.c ****     *  x3:  Before previous value.
1879:Generated_Source\PSoC5/CapSense_1_CSHL.c ****     *
1880:Generated_Source\PSoC5/CapSense_1_CSHL.c ****     * Return:
1881:Generated_Source\PSoC5/CapSense_1_CSHL.c ****     *  Returns filtered value.
1882:Generated_Source\PSoC5/CapSense_1_CSHL.c ****     *
1883:Generated_Source\PSoC5/CapSense_1_CSHL.c ****     *******************************************************************************/
ARM GAS  C:\Users\holge\AppData\Local\Temp\ccXKJRa1.s 			page 51


1884:Generated_Source\PSoC5/CapSense_1_CSHL.c ****     uint16 CapSense_1_AveragingFilter(uint16 x1, uint16 x2, uint16 x3)
1885:Generated_Source\PSoC5/CapSense_1_CSHL.c ****                                             
1886:Generated_Source\PSoC5/CapSense_1_CSHL.c ****     {
1887:Generated_Source\PSoC5/CapSense_1_CSHL.c ****         uint32 tmp = ((uint32)x1 + (uint32)x2 + (uint32)x3) / 3u;
1888:Generated_Source\PSoC5/CapSense_1_CSHL.c ****         
1889:Generated_Source\PSoC5/CapSense_1_CSHL.c ****         return ((uint16) tmp);
1890:Generated_Source\PSoC5/CapSense_1_CSHL.c ****     }
1891:Generated_Source\PSoC5/CapSense_1_CSHL.c **** #endif /* ( (CapSense_1_RAW_FILTER_MASK & CapSense_1_AVERAGING_FILTER) | \
1892:Generated_Source\PSoC5/CapSense_1_CSHL.c ****        *    (CapSense_1_POS_FILTERS_MASK & CapSense_1_AVERAGING_FILTER) )
1893:Generated_Source\PSoC5/CapSense_1_CSHL.c ****        */
1894:Generated_Source\PSoC5/CapSense_1_CSHL.c **** 
1895:Generated_Source\PSoC5/CapSense_1_CSHL.c **** 
1896:Generated_Source\PSoC5/CapSense_1_CSHL.c **** #if ( (CapSense_1_RAW_FILTER_MASK & CapSense_1_IIR2_FILTER) | \
1897:Generated_Source\PSoC5/CapSense_1_CSHL.c ****       (CapSense_1_POS_FILTERS_MASK & CapSense_1_IIR2_FILTER) )
1898:Generated_Source\PSoC5/CapSense_1_CSHL.c ****     /*******************************************************************************
1899:Generated_Source\PSoC5/CapSense_1_CSHL.c ****     * Function Name: CapSense_1_IIR2Filter
1900:Generated_Source\PSoC5/CapSense_1_CSHL.c ****     ********************************************************************************
1901:Generated_Source\PSoC5/CapSense_1_CSHL.c ****     *
1902:Generated_Source\PSoC5/CapSense_1_CSHL.c ****     * Summary:
1903:Generated_Source\PSoC5/CapSense_1_CSHL.c ****     *  IIR1/2 filter function. IIR1/2 = 1/2current + 1/2previous.
1904:Generated_Source\PSoC5/CapSense_1_CSHL.c ****     *
1905:Generated_Source\PSoC5/CapSense_1_CSHL.c ****     * Parameters:
1906:Generated_Source\PSoC5/CapSense_1_CSHL.c ****     *  x1:  Current value.
1907:Generated_Source\PSoC5/CapSense_1_CSHL.c ****     *  x2:  Previous value.
1908:Generated_Source\PSoC5/CapSense_1_CSHL.c ****     *
1909:Generated_Source\PSoC5/CapSense_1_CSHL.c ****     * Return:
1910:Generated_Source\PSoC5/CapSense_1_CSHL.c ****     *  Returns filtered value.
1911:Generated_Source\PSoC5/CapSense_1_CSHL.c ****     *
1912:Generated_Source\PSoC5/CapSense_1_CSHL.c ****     *******************************************************************************/
1913:Generated_Source\PSoC5/CapSense_1_CSHL.c ****     uint16 CapSense_1_IIR2Filter(uint16 x1, uint16 x2)
1914:Generated_Source\PSoC5/CapSense_1_CSHL.c ****                                        
1915:Generated_Source\PSoC5/CapSense_1_CSHL.c ****     {
1916:Generated_Source\PSoC5/CapSense_1_CSHL.c ****         uint32 tmp;
1917:Generated_Source\PSoC5/CapSense_1_CSHL.c ****         
1918:Generated_Source\PSoC5/CapSense_1_CSHL.c ****         /* IIR = 1/2 Current Value+ 1/2 Previous Value */
1919:Generated_Source\PSoC5/CapSense_1_CSHL.c ****         tmp = (uint32)x1 + (uint32)x2;
1920:Generated_Source\PSoC5/CapSense_1_CSHL.c ****         tmp >>= 1u;
1921:Generated_Source\PSoC5/CapSense_1_CSHL.c ****     
1922:Generated_Source\PSoC5/CapSense_1_CSHL.c ****         return ((uint16) tmp);
1923:Generated_Source\PSoC5/CapSense_1_CSHL.c ****     }
1924:Generated_Source\PSoC5/CapSense_1_CSHL.c **** #endif /* ( (CapSense_1_RAW_FILTER_MASK & CapSense_1_IIR2_FILTER) | \
1925:Generated_Source\PSoC5/CapSense_1_CSHL.c ****        *    (CapSense_1_POS_FILTERS_MASK & CapSense_1_IIR2_FILTER) )
1926:Generated_Source\PSoC5/CapSense_1_CSHL.c ****        */
1927:Generated_Source\PSoC5/CapSense_1_CSHL.c **** 
1928:Generated_Source\PSoC5/CapSense_1_CSHL.c **** 
1929:Generated_Source\PSoC5/CapSense_1_CSHL.c **** #if ( (CapSense_1_RAW_FILTER_MASK & CapSense_1_IIR4_FILTER) | \
1930:Generated_Source\PSoC5/CapSense_1_CSHL.c ****       (CapSense_1_POS_FILTERS_MASK & CapSense_1_IIR4_FILTER) )
1931:Generated_Source\PSoC5/CapSense_1_CSHL.c ****     /*******************************************************************************
1932:Generated_Source\PSoC5/CapSense_1_CSHL.c ****     * Function Name: CapSense_1_IIR4Filter
1933:Generated_Source\PSoC5/CapSense_1_CSHL.c ****     ********************************************************************************
1934:Generated_Source\PSoC5/CapSense_1_CSHL.c ****     *
1935:Generated_Source\PSoC5/CapSense_1_CSHL.c ****     * Summary:
1936:Generated_Source\PSoC5/CapSense_1_CSHL.c ****     *  IIR1/4 filter function. IIR1/4 = 1/4current + 3/4previous.
1937:Generated_Source\PSoC5/CapSense_1_CSHL.c ****     *
1938:Generated_Source\PSoC5/CapSense_1_CSHL.c ****     * Parameters:
1939:Generated_Source\PSoC5/CapSense_1_CSHL.c ****     *  x1:  Current value.
1940:Generated_Source\PSoC5/CapSense_1_CSHL.c ****     *  x2:  Previous value.
ARM GAS  C:\Users\holge\AppData\Local\Temp\ccXKJRa1.s 			page 52


1941:Generated_Source\PSoC5/CapSense_1_CSHL.c ****     *
1942:Generated_Source\PSoC5/CapSense_1_CSHL.c ****     * Return:
1943:Generated_Source\PSoC5/CapSense_1_CSHL.c ****     *  Returns filtered value.
1944:Generated_Source\PSoC5/CapSense_1_CSHL.c ****     *
1945:Generated_Source\PSoC5/CapSense_1_CSHL.c ****     *******************************************************************************/
1946:Generated_Source\PSoC5/CapSense_1_CSHL.c ****     uint16 CapSense_1_IIR4Filter(uint16 x1, uint16 x2)
1947:Generated_Source\PSoC5/CapSense_1_CSHL.c ****                                        
1948:Generated_Source\PSoC5/CapSense_1_CSHL.c ****     {
 952              		.loc 1 1948 0
 953              		.cfi_startproc
 954              		@ args = 0, pretend = 0, frame = 0
 955              		@ frame_needed = 0, uses_anonymous_args = 0
 956              		@ link register save eliminated.
 957              	.LVL119:
1949:Generated_Source\PSoC5/CapSense_1_CSHL.c ****         uint32 tmp;
1950:Generated_Source\PSoC5/CapSense_1_CSHL.c ****         
1951:Generated_Source\PSoC5/CapSense_1_CSHL.c ****         /* IIR = 1/4 Current Value + 3/4 Previous Value */
1952:Generated_Source\PSoC5/CapSense_1_CSHL.c ****         tmp = (uint32)x1 + (uint32)x2;
 958              		.loc 1 1952 0
 959 0000 0844     		add	r0, r0, r1
 960              	.LVL120:
1953:Generated_Source\PSoC5/CapSense_1_CSHL.c ****         tmp += ((uint32)x2 << 1u);
 961              		.loc 1 1953 0
 962 0002 00EB4100 		add	r0, r0, r1, lsl #1
 963              	.LVL121:
1954:Generated_Source\PSoC5/CapSense_1_CSHL.c ****         tmp >>= 2u;
1955:Generated_Source\PSoC5/CapSense_1_CSHL.c ****         
1956:Generated_Source\PSoC5/CapSense_1_CSHL.c ****         return ((uint16) tmp);
1957:Generated_Source\PSoC5/CapSense_1_CSHL.c ****     }
 964              		.loc 1 1957 0
 965 0006 C0F38F00 		ubfx	r0, r0, #2, #16
 966              	.LVL122:
 967 000a 7047     		bx	lr
 968              		.cfi_endproc
 969              	.LFE14:
 970              		.size	CapSense_1_IIR4Filter, .-CapSense_1_IIR4Filter
 971              		.section	.text.CapSense_1_GetCentroidPos,"ax",%progbits
 972              		.align	2
 973              		.global	CapSense_1_GetCentroidPos
 974              		.thumb
 975              		.thumb_func
 976              		.type	CapSense_1_GetCentroidPos, %function
 977              	CapSense_1_GetCentroidPos:
 978              	.LFB13:
1213:Generated_Source\PSoC5/CapSense_1_CSHL.c ****         #if (CapSense_1_IS_DIPLEX_SLIDER)
 979              		.loc 1 1213 0
 980              		.cfi_startproc
 981              		@ args = 0, pretend = 0, frame = 0
 982              		@ frame_needed = 0, uses_anonymous_args = 0
 983              	.LVL123:
 984 0000 30B5     		push	{r4, r5, lr}
 985              		.cfi_def_cfa_offset 12
 986              		.cfi_offset 4, -12
 987              		.cfi_offset 5, -8
 988              		.cfi_offset 14, -4
 989 0002 83B0     		sub	sp, sp, #12
 990              		.cfi_def_cfa_offset 24
ARM GAS  C:\Users\holge\AppData\Local\Temp\ccXKJRa1.s 			page 53


1220:Generated_Source\PSoC5/CapSense_1_CSHL.c ****             uint8 posFiltersMask = CapSense_1_posFiltersMask[widget];  
 991              		.loc 1 1220 0
 992 0004 144B     		ldr	r3, .L94
 993 0006 1C5C     		ldrb	r4, [r3, r0]	@ zero_extendqisi2
 994              	.LVL124:
1252:Generated_Source\PSoC5/CapSense_1_CSHL.c ****         #endif /* (CapSense_1_IS_DIPLEX_SLIDER) */
 995              		.loc 1 1252 0
 996 0008 6422     		movs	r2, #100
 997 000a 0521     		movs	r1, #5
 998 000c 0020     		movs	r0, #0
 999              	.LVL125:
 1000 000e FFF7FEFF 		bl	CapSense_1_FindMaximum
 1001              	.LVL126:
1255:Generated_Source\PSoC5/CapSense_1_CSHL.c ****         {
 1002              		.loc 1 1255 0
 1003 0012 FF28     		cmp	r0, #255
 1004 0014 19D0     		beq	.L90
1258:Generated_Source\PSoC5/CapSense_1_CSHL.c ****                          offset, count, CapSense_1_centroidMult[widget], CapSense_1_noiseThreshold[
 1005              		.loc 1 1258 0
 1006 0016 1423     		movs	r3, #20
 1007 0018 0093     		str	r3, [sp]
 1008 001a 4FF4C853 		mov	r3, #6400
 1009 001e 0522     		movs	r2, #5
 1010 0020 0021     		movs	r1, #0
 1011 0022 FFF7FEFF 		bl	CapSense_1_CalcCentroid
 1012              	.LVL127:
 1013 0026 0346     		mov	r3, r0
 1014 0028 80B2     		uxth	r0, r0
 1015              	.LVL128:
1266:Generated_Source\PSoC5/CapSense_1_CSHL.c ****                     
 1016              		.loc 1 1266 0
 1017 002a 651C     		adds	r5, r4, #1
 1018 002c EDB2     		uxtb	r5, r5
 1019              	.LVL129:
1268:Generated_Source\PSoC5/CapSense_1_CSHL.c ****                     {
 1020              		.loc 1 1268 0
 1021 002e 0A4A     		ldr	r2, .L94
 1022 0030 125D     		ldrb	r2, [r2, r4]	@ zero_extendqisi2
 1023 0032 22B9     		cbnz	r2, .L91
1271:Generated_Source\PSoC5/CapSense_1_CSHL.c ****                         #if ((0u != (CapSense_1_MEDIAN_FILTER & \
 1024              		.loc 1 1271 0
 1025 0034 084A     		ldr	r2, .L94
 1026 0036 5355     		strb	r3, [r2, r5]
1288:Generated_Source\PSoC5/CapSense_1_CSHL.c ****                     }
 1027              		.loc 1 1288 0
 1028 0038 0123     		movs	r3, #1
 1029 003a 1355     		strb	r3, [r2, r4]
 1030 003c 0AE0     		b	.L92
 1031              	.L91:
1337:Generated_Source\PSoC5/CapSense_1_CSHL.c ****                                 CapSense_1_posFiltersData[posIndex] = (uint8) position;
 1032              		.loc 1 1337 0
 1033 003e 064C     		ldr	r4, .L94
 1034              	.LVL130:
1336:Generated_Source\PSoC5/CapSense_1_CSHL.c ****                                                                     (uint16)CapSense_1_posFiltersDa
 1035              		.loc 1 1336 0
 1036 0040 615D     		ldrb	r1, [r4, r5]	@ zero_extendqisi2
 1037 0042 FFF7FEFF 		bl	CapSense_1_IIR4Filter
ARM GAS  C:\Users\holge\AppData\Local\Temp\ccXKJRa1.s 			page 54


 1038              	.LVL131:
1338:Generated_Source\PSoC5/CapSense_1_CSHL.c ****                             }                                
 1039              		.loc 1 1338 0
 1040 0046 6055     		strb	r0, [r4, r5]
 1041 0048 04E0     		b	.L92
 1042              	.LVL132:
 1043              	.L90:
1368:Generated_Source\PSoC5/CapSense_1_CSHL.c ****                 }
 1044              		.loc 1 1368 0
 1045 004a 0022     		movs	r2, #0
 1046 004c 024B     		ldr	r3, .L94
 1047 004e 1A55     		strb	r2, [r3, r4]
1362:Generated_Source\PSoC5/CapSense_1_CSHL.c **** 
 1048              		.loc 1 1362 0
 1049 0050 4FF6FF70 		movw	r0, #65535
 1050              	.LVL133:
 1051              	.L92:
1375:Generated_Source\PSoC5/CapSense_1_CSHL.c **** #endif /* (CapSense_1_TOTAL_LINEAR_SLIDERS_COUNT > 0u) */
 1052              		.loc 1 1375 0
 1053 0054 03B0     		add	sp, sp, #12
 1054              		.cfi_def_cfa_offset 12
 1055              		@ sp needed
 1056 0056 30BD     		pop	{r4, r5, pc}
 1057              	.L95:
 1058              		.align	2
 1059              	.L94:
 1060 0058 00000000 		.word	.LANCHOR1
 1061              		.cfi_endproc
 1062              	.LFE13:
 1063              		.size	CapSense_1_GetCentroidPos, .-CapSense_1_GetCentroidPos
 1064              		.global	CapSense_1_posFiltersData
 1065              		.global	CapSense_1_posFiltersMask
 1066              		.global	CapSense_1_centroidMult
 1067              		.global	CapSense_1_numberOfSensors
 1068              		.global	CapSense_1_rawDataIndex
 1069              		.global	CapSense_1_debounceCounter
 1070              		.global	CapSense_1_debounce
 1071              		.global	CapSense_1_hysteresis
 1072              		.global	CapSense_1_noiseThreshold
 1073              		.global	CapSense_1_fingerThreshold
 1074              		.comm	CapSense_1_lowBaselineResetCnt,5,4
 1075              		.comm	CapSense_1_sensorOnMask,1,4
 1076              		.comm	CapSense_1_sensorSignal,5,4
 1077              		.comm	CapSense_1_sensorBaselineLow,5,4
 1078              		.comm	CapSense_1_sensorBaseline,10,4
 1079              		.section	.rodata
 1080              		.align	2
 1081              		.type	CapSense_1_posFiltersMask, %object
 1082              		.size	CapSense_1_posFiltersMask, 1
 1083              	CapSense_1_posFiltersMask:
 1084 0000 08       		.byte	8
 1085 0001 000000   		.space	3
 1086              		.type	CapSense_1_centroidMult, %object
 1087              		.size	CapSense_1_centroidMult, 2
 1088              	CapSense_1_centroidMult:
 1089 0004 0019     		.short	6400
 1090 0006 0000     		.space	2
ARM GAS  C:\Users\holge\AppData\Local\Temp\ccXKJRa1.s 			page 55


 1091              		.type	CapSense_1_numberOfSensors, %object
 1092              		.size	CapSense_1_numberOfSensors, 1
 1093              	CapSense_1_numberOfSensors:
 1094 0008 05       		.byte	5
 1095 0009 000000   		.space	3
 1096              		.type	CapSense_1_rawDataIndex, %object
 1097              		.size	CapSense_1_rawDataIndex, 1
 1098              	CapSense_1_rawDataIndex:
 1099 000c 00       		.space	1
 1100 000d 000000   		.space	3
 1101              		.type	CapSense_1_debounce, %object
 1102              		.size	CapSense_1_debounce, 1
 1103              	CapSense_1_debounce:
 1104 0010 01       		.byte	1
 1105 0011 000000   		.space	3
 1106              		.type	CapSense_1_hysteresis, %object
 1107              		.size	CapSense_1_hysteresis, 1
 1108              	CapSense_1_hysteresis:
 1109 0014 00       		.space	1
 1110 0015 000000   		.space	3
 1111              		.type	CapSense_1_noiseThreshold, %object
 1112              		.size	CapSense_1_noiseThreshold, 1
 1113              	CapSense_1_noiseThreshold:
 1114 0018 14       		.byte	20
 1115 0019 000000   		.space	3
 1116              		.type	CapSense_1_fingerThreshold, %object
 1117              		.size	CapSense_1_fingerThreshold, 1
 1118              	CapSense_1_fingerThreshold:
 1119 001c 64       		.byte	100
 1120              		.data
 1121              		.align	2
 1122              		.set	.LANCHOR1,. + 0
 1123              		.type	CapSense_1_posFiltersData, %object
 1124              		.size	CapSense_1_posFiltersData, 3
 1125              	CapSense_1_posFiltersData:
 1126 0000 01       		.byte	1
 1127 0001 00       		.byte	0
 1128 0002 00       		.byte	0
 1129              		.bss
 1130              		.align	2
 1131              		.set	.LANCHOR0,. + 0
 1132              		.type	CapSense_1_debounceCounter, %object
 1133              		.size	CapSense_1_debounceCounter, 1
 1134              	CapSense_1_debounceCounter:
 1135 0000 00       		.space	1
 1136 0001 000000   		.space	3
 1137              		.type	CapSense_1_centroid.5263, %object
 1138              		.size	CapSense_1_centroid.5263, 3
 1139              	CapSense_1_centroid.5263:
 1140 0004 000000   		.space	3
 1141              		.text
 1142              	.Letext0:
 1143              		.file 2 "Generated_Source\\PSoC5\\cytypes.h"
 1144              		.file 3 "Generated_Source\\PSoC5\\CapSense_1.h"
 1145              		.file 4 "Generated_Source\\PSoC5\\CapSense_1_CSHL.h"